---
triple:          'arm64-apple-darwin'
binary-path:     inventorySystem
relocations:
  - { offsetInCU: 0x41E7, offset: 0x41E7, size: 0x8, addend: 0x0, symName: __ZNSt3__124__put_character_sequenceB8ue170006IcNS_11char_traitsIcEEEERNS_13basic_ostreamIT_T0_EES7_PKS4_m, symObjAddr: 0x240C, symBinAddr: 0x100006094, symSize: 0x1EC }
  - { offsetInCU: 0x644E, offset: 0x644E, size: 0x8, addend: 0x0, symName: __ZNSt3__1lsB8ue170006INS_11char_traitsIcEEEERNS_13basic_ostreamIcT_EES6_PKc, symObjAddr: 0x410, symBinAddr: 0x100004098, symSize: 0x48 }
  - { offsetInCU: 0x6494, offset: 0x6494, size: 0x8, addend: 0x0, symName: __ZNSt3__14endlB8ue170006IcNS_11char_traitsIcEEEERNS_13basic_ostreamIT_T0_EES7_, symObjAddr: 0x10BC, symBinAddr: 0x100004D44, symSize: 0x58 }
  - { offsetInCU: 0x64D4, offset: 0x64D4, size: 0x8, addend: 0x0, symName: __ZNSt3__1lsB8ue170006IcNS_11char_traitsIcEEEERNS_13basic_ostreamIT_T0_EES7_RKNS_8__iom_t6E, symObjAddr: 0x1114, symBinAddr: 0x100004D9C, symSize: 0x40 }
  - { offsetInCU: 0x6523, offset: 0x6523, size: 0x8, addend: 0x0, symName: __ZNSt3__14leftB8ue170006ERNS_8ios_baseE, symObjAddr: 0x1194, symBinAddr: 0x100004E1C, symSize: 0x30 }
  - { offsetInCU: 0x6551, offset: 0x6551, size: 0x8, addend: 0x0, symName: __ZNSt3__14setwB8ue170006Ei, symObjAddr: 0x11C4, symBinAddr: 0x100004E4C, symSize: 0x2C }
  - { offsetInCU: 0x657F, offset: 0x657F, size: 0x8, addend: 0x0, symName: __ZNSt3__1neB8ue170006IPKN1M4ItemEEEbRKNS_11__wrap_iterIT_EES9_, symObjAddr: 0x1250, symBinAddr: 0x100004ED8, symSize: 0x34 }
  - { offsetInCU: 0x65C2, offset: 0x65C2, size: 0x8, addend: 0x0, symName: __ZNSt3__1lsB8ue170006IcNS_11char_traitsIcEENS_9allocatorIcEEEERNS_13basic_ostreamIT_T0_EES9_RKNS_12basic_stringIS6_S7_T1_EE, symObjAddr: 0x12D0, symBinAddr: 0x100004F58, symSize: 0x4C }
  - { offsetInCU: 0x6804, offset: 0x6804, size: 0x8, addend: 0x0, symName: __ZNSt3__17getlineB8ue170006IcNS_11char_traitsIcEENS_9allocatorIcEEEERNS_13basic_istreamIT_T0_EES9_RNS_12basic_stringIS6_S7_T1_EES6_, symObjAddr: 0x1384, symBinAddr: 0x10000500C, symSize: 0x238 }
  - { offsetInCU: 0x68C2, offset: 0x68C2, size: 0x8, addend: 0x0, symName: __ZNSt3__1eqB8ue170006IPKN1M4ItemEEEbRKNS_11__wrap_iterIT_EES9_, symObjAddr: 0x1B90, symBinAddr: 0x100005818, symSize: 0x48 }
  - { offsetInCU: 0x6905, offset: 0x6905, size: 0x8, addend: 0x0, symName: __ZNSt3__112__to_addressB8ue170006IN1M4ItemEEEPT_S4_, symObjAddr: 0x1FE0, symBinAddr: 0x100005C68, symSize: 0x14 }
  - { offsetInCU: 0x693A, offset: 0x693A, size: 0x8, addend: 0x0, symName: __ZNSt3__119__libcpp_deallocateB8ue170006EPvmm, symObjAddr: 0x20A4, symBinAddr: 0x100005D2C, symSize: 0x60 }
  - { offsetInCU: 0x699F, offset: 0x699F, size: 0x8, addend: 0x0, symName: __ZNSt3__124__is_overaligned_for_newB8ue170006Em, symObjAddr: 0x2104, symBinAddr: 0x100005D8C, symSize: 0x20 }
  - { offsetInCU: 0x69CD, offset: 0x69CD, size: 0x8, addend: 0x0, symName: __ZNSt3__127__do_deallocate_handle_sizeB8ue170006IJSt11align_val_tEEEvPvmDpT_, symObjAddr: 0x2124, symBinAddr: 0x100005DAC, symSize: 0x30 }
  - { offsetInCU: 0x6A20, offset: 0x6A20, size: 0x8, addend: 0x0, symName: __ZNSt3__127__do_deallocate_handle_sizeB8ue170006IJEEEvPvmDpT_, symObjAddr: 0x2154, symBinAddr: 0x100005DDC, symSize: 0x28 }
  - { offsetInCU: 0x6A5E, offset: 0x6A5E, size: 0x8, addend: 0x0, symName: __ZNSt3__124__libcpp_operator_deleteB8ue170006IJPvSt11align_val_tEEEvDpT_, symObjAddr: 0x217C, symBinAddr: 0x100005E04, symSize: 0x2C }
  - { offsetInCU: 0x6AA7, offset: 0x6AA7, size: 0x8, addend: 0x0, symName: __ZNSt3__124__libcpp_operator_deleteB8ue170006IJPvEEEvDpT_, symObjAddr: 0x21A8, symBinAddr: 0x100005E30, symSize: 0x24 }
  - { offsetInCU: 0x6ADC, offset: 0x6ADC, size: 0x8, addend: 0x0, symName: __ZNSt3__118__constexpr_strlenB8ue170006EPKc, symObjAddr: 0x23E8, symBinAddr: 0x100006070, symSize: 0x24 }
  - { offsetInCU: 0x6B08, offset: 0x6B08, size: 0x8, addend: 0x0, symName: __ZNSt3__116__pad_and_outputB8ue170006IcNS_11char_traitsIcEEEENS_19ostreambuf_iteratorIT_T0_EES6_PKS4_S8_S8_RNS_8ios_baseES4_, symObjAddr: 0x2614, symBinAddr: 0x10000629C, symSize: 0x240 }
  - { offsetInCU: 0x6BD7, offset: 0x6BD7, size: 0x8, addend: 0x0, symName: __ZNSt3__112__to_addressB8ue170006IcEEPT_S2_, symObjAddr: 0x2A84, symBinAddr: 0x10000670C, symSize: 0x14 }
  - { offsetInCU: 0x6C3F, offset: 0x6C3F, size: 0x8, addend: 0x0, symName: __ZNSt3__19use_facetB8ue170006INS_5ctypeIcEEEERKT_RKNS_6localeE, symObjAddr: 0x2D34, symBinAddr: 0x1000069BC, symSize: 0x2C }
  - { offsetInCU: 0x710C, offset: 0x710C, size: 0x8, addend: 0x0, symName: __ZNSt3__112__to_addressB8ue170006IKcEEPT_S3_, symObjAddr: 0x2ECC, symBinAddr: 0x100006B54, symSize: 0x14 }
  - { offsetInCU: 0x78EB, offset: 0x78EB, size: 0x8, addend: 0x0, symName: __ZNSt3__122__make_exception_guardB8ue170006INS_6vectorIN1M4ItemENS_9allocatorIS3_EEE16__destroy_vectorEEENS_28__exception_guard_exceptionsIT_EES9_, symObjAddr: 0x371C, symBinAddr: 0x1000073A4, symSize: 0x40 }
  - { offsetInCU: 0x7920, offset: 0x7920, size: 0x8, addend: 0x0, symName: __ZNSt3__119__allocate_at_leastB8ue170006INS_9allocatorIN1M4ItemEEEEENS_19__allocation_resultINS_16allocator_traitsIT_E7pointerEEERS7_m, symObjAddr: 0x39B0, symBinAddr: 0x100007638, symSize: 0x40 }
  - { offsetInCU: 0x7963, offset: 0x7963, size: 0x8, addend: 0x0, symName: __ZNSt3__13minB8ue170006ImEERKT_S3_S3_, symObjAddr: 0x3AC4, symBinAddr: 0x10000774C, symSize: 0x2C }
  - { offsetInCU: 0x79A6, offset: 0x79A6, size: 0x8, addend: 0x0, symName: __ZNSt3__13minB8ue170006ImNS_6__lessIvvEEEERKT_S5_S5_T0_, symObjAddr: 0x3B14, symBinAddr: 0x10000779C, symSize: 0x54 }
  - { offsetInCU: 0x7A45, offset: 0x7A45, size: 0x8, addend: 0x0, symName: __ZNSt3__120__throw_length_errorB8ue170006EPKc, symObjAddr: 0x3BB0, symBinAddr: 0x100007838, symSize: 0x64 }
  - { offsetInCU: 0x7A6F, offset: 0x7A6F, size: 0x8, addend: 0x0, symName: __ZNSt3__117__libcpp_allocateB8ue170006Emm, symObjAddr: 0x3D20, symBinAddr: 0x1000079A8, symSize: 0x60 }
  - { offsetInCU: 0x7AC9, offset: 0x7AC9, size: 0x8, addend: 0x0, symName: __ZNSt3__121__libcpp_operator_newB8ue170006IJmSt11align_val_tEEEPvDpT_, symObjAddr: 0x3D80, symBinAddr: 0x100007A08, symSize: 0x2C }
  - { offsetInCU: 0x7B16, offset: 0x7B16, size: 0x8, addend: 0x0, symName: __ZNSt3__121__libcpp_operator_newB8ue170006IJmEEEPvDpT_, symObjAddr: 0x3DAC, symBinAddr: 0x100007A34, symSize: 0x24 }
  - { offsetInCU: 0x7B4F, offset: 0x7B4F, size: 0x8, addend: 0x0, symName: __ZNSt3__130__uninitialized_allocator_copyB8ue170006INS_9allocatorIN1M4ItemEEEPS3_S5_S5_EET2_RT_T0_T1_S6_, symObjAddr: 0x3E44, symBinAddr: 0x100007ACC, symSize: 0x80 }
  - { offsetInCU: 0x7BEC, offset: 0x7BEC, size: 0x8, addend: 0x0, symName: __ZNSt3__114__unwrap_rangeB8ue170006IPN1M4ItemES3_EENS_4pairIT0_S5_EET_S7_, symObjAddr: 0x3F34, symBinAddr: 0x100007BBC, symSize: 0x60 }
  - { offsetInCU: 0x7C38, offset: 0x7C38, size: 0x8, addend: 0x0, symName: __ZNSt3__135__uninitialized_allocator_copy_implB8ue170006INS_9allocatorIN1M4ItemEEEPS3_S5_S5_EET2_RT_T0_T1_S6_, symObjAddr: 0x3F94, symBinAddr: 0x100007C1C, symSize: 0xF4 }
  - { offsetInCU: 0x7CD6, offset: 0x7CD6, size: 0x8, addend: 0x0, symName: __ZNSt3__113__unwrap_iterB8ue170006IPN1M4ItemENS_18__unwrap_iter_implIS3_Lb1EEELi0EEEDTclsrT0_8__unwrapclsr3stdE7declvalIT_EEEES7_, symObjAddr: 0x4088, symBinAddr: 0x100007D10, symSize: 0x24 }
  - { offsetInCU: 0x7D1A, offset: 0x7D1A, size: 0x8, addend: 0x0, symName: __ZNSt3__113__rewrap_iterB8ue170006IPN1M4ItemES3_NS_18__unwrap_iter_implIS3_Lb1EEEEET_S6_T0_, symObjAddr: 0x40AC, symBinAddr: 0x100007D34, symSize: 0x3C }
  - { offsetInCU: 0x7D6F, offset: 0x7D6F, size: 0x8, addend: 0x0, symName: __ZNSt3__19make_pairB8ue170006IPN1M4ItemES3_EENS_4pairINS_18__unwrap_ref_decayIT_E4typeENS5_IT0_E4typeEEEOS6_OS9_, symObjAddr: 0x40E8, symBinAddr: 0x100007D70, symSize: 0x38 }
  - { offsetInCU: 0x7E92, offset: 0x7E92, size: 0x8, addend: 0x0, symName: __ZNSt3__122__make_exception_guardB8ue170006INS_29_AllocatorDestroyRangeReverseINS_9allocatorIN1M4ItemEEEPS4_EEEENS_28__exception_guard_exceptionsIT_EES9_, symObjAddr: 0x4190, symBinAddr: 0x100007E18, symSize: 0x4C }
  - { offsetInCU: 0x7EC8, offset: 0x7EC8, size: 0x8, addend: 0x0, symName: __ZNSt3__119__allocator_destroyB8ue170006INS_9allocatorIN1M4ItemEEENS_16reverse_iteratorIPS3_EES7_EEvRT_T0_T1_, symObjAddr: 0x4420, symBinAddr: 0x1000080A8, symSize: 0x70 }
  - { offsetInCU: 0x7F2B, offset: 0x7F2B, size: 0x8, addend: 0x0, symName: __ZNSt3__1neB8ue170006IPN1M4ItemES3_EEbRKNS_16reverse_iteratorIT_EERKNS4_IT0_EE, symObjAddr: 0x44C4, symBinAddr: 0x10000814C, symSize: 0x48 }
  - { offsetInCU: 0x7F77, offset: 0x7F77, size: 0x8, addend: 0x0, symName: __ZNSt3__112__to_addressB8ue170006INS_16reverse_iteratorIPN1M4ItemEEEvEEu7__decayIDTclsr19__to_address_helperIT_EE6__callclsr3stdE7declvalIRKS6_EEEEES8_, symObjAddr: 0x450C, symBinAddr: 0x100008194, symSize: 0x24 }
  - { offsetInCU: 0x8363, offset: 0x8363, size: 0x8, addend: 0x0, symName: __ZSt28__throw_bad_array_new_lengthB8ue170006v, symObjAddr: 0x3CEC, symBinAddr: 0x100007974, symSize: 0x34 }
  - { offsetInCU: 0xAD3F, offset: 0xAD3F, size: 0x8, addend: 0x0, symName: _main, symObjAddr: 0x0, symBinAddr: 0x100003C88, symSize: 0x270 }
  - { offsetInCU: 0xADAD, offset: 0xADAD, size: 0x8, addend: 0x0, symName: __ZNSt3__112basic_stringIcNS_11char_traitsIcEENS_9allocatorIcEEEC1B8ue170006ILi0EEEPKc, symObjAddr: 0x270, symBinAddr: 0x100003EF8, symSize: 0x34 }
  - { offsetInCU: 0xADEC, offset: 0xADEC, size: 0x8, addend: 0x0, symName: __Z4menuRN1Y9InventoryE, symObjAddr: 0x2A4, symBinAddr: 0x100003F2C, symSize: 0x100 }
  - { offsetInCU: 0xAE41, offset: 0xAE41, size: 0x8, addend: 0x0, symName: __ZN1M4ItemD1Ev, symObjAddr: 0x3B8, symBinAddr: 0x100004040, symSize: 0x2C }
  - { offsetInCU: 0xAF24, offset: 0xAF24, size: 0x8, addend: 0x0, symName: __ZN1Y9InventoryD1Ev, symObjAddr: 0x3E4, symBinAddr: 0x10000406C, symSize: 0x2C }
  - { offsetInCU: 0xAF50, offset: 0xAF50, size: 0x8, addend: 0x0, symName: __Z13viewInventoryRKN1Y9InventoryE, symObjAddr: 0x458, symBinAddr: 0x1000040E0, symSize: 0x208 }
  - { offsetInCU: 0xAFBC, offset: 0xAFBC, size: 0x8, addend: 0x0, symName: __Z7addItemRN1Y9InventoryE, symObjAddr: 0x660, symBinAddr: 0x1000042E8, symSize: 0x3B8 }
  - { offsetInCU: 0xB054, offset: 0xB054, size: 0x8, addend: 0x0, symName: __Z10updateItemRN1Y9InventoryE, symObjAddr: 0xA18, symBinAddr: 0x1000046A0, symSize: 0x4DC }
  - { offsetInCU: 0xB107, offset: 0xB107, size: 0x8, addend: 0x0, symName: __Z10removeItemRN1Y9InventoryE, symObjAddr: 0xEF4, symBinAddr: 0x100004B7C, symSize: 0x19C }
  - { offsetInCU: 0xB163, offset: 0xB163, size: 0x8, addend: 0x0, symName: __ZNSt3__113basic_ostreamIcNS_11char_traitsIcEEElsB8ue170006EPFRS3_S4_E, symObjAddr: 0x1090, symBinAddr: 0x100004D18, symSize: 0x2C }
  - { offsetInCU: 0xB197, offset: 0xB197, size: 0x8, addend: 0x0, symName: __ZNSt3__113basic_ostreamIcNS_11char_traitsIcEEElsB8ue170006EPFRNS_8ios_baseES5_E, symObjAddr: 0x1154, symBinAddr: 0x100004DDC, symSize: 0x40 }
  - { offsetInCU: 0xB1CB, offset: 0xB1CB, size: 0x8, addend: 0x0, symName: __ZNKSt3__16vectorIN1M4ItemENS_9allocatorIS2_EEE5beginB8ue170006Ev, symObjAddr: 0x11F0, symBinAddr: 0x100004E78, symSize: 0x30 }
  - { offsetInCU: 0xB1F3, offset: 0xB1F3, size: 0x8, addend: 0x0, symName: __ZNKSt3__16vectorIN1M4ItemENS_9allocatorIS2_EEE3endB8ue170006Ev, symObjAddr: 0x1220, symBinAddr: 0x100004EA8, symSize: 0x30 }
  - { offsetInCU: 0xB21B, offset: 0xB21B, size: 0x8, addend: 0x0, symName: __ZNKSt3__111__wrap_iterIPKN1M4ItemEEdeB8ue170006Ev, symObjAddr: 0x1284, symBinAddr: 0x100004F0C, symSize: 0x18 }
  - { offsetInCU: 0xB241, offset: 0xB241, size: 0x8, addend: 0x0, symName: __ZN1M4ItemC1ERKS0_, symObjAddr: 0x129C, symBinAddr: 0x100004F24, symSize: 0x34 }
  - { offsetInCU: 0xB276, offset: 0xB276, size: 0x8, addend: 0x0, symName: __ZNSt3__111__wrap_iterIPKN1M4ItemEEppB8ue170006Ev, symObjAddr: 0x131C, symBinAddr: 0x100004FA4, symSize: 0x20 }
  - { offsetInCU: 0xB29C, offset: 0xB29C, size: 0x8, addend: 0x0, symName: __ZNSt3__114numeric_limitsIlE3maxB8ue170006Ev, symObjAddr: 0x133C, symBinAddr: 0x100004FC4, symSize: 0x14 }
  - { offsetInCU: 0xB2B0, offset: 0xB2B0, size: 0x8, addend: 0x0, symName: __ZNSt3__112basic_stringIcNS_11char_traitsIcEENS_9allocatorIcEEEC1B8ue170006Ev, symObjAddr: 0x1350, symBinAddr: 0x100004FD8, symSize: 0x2C }
  - { offsetInCU: 0xB2DA, offset: 0xB2DA, size: 0x8, addend: 0x0, symName: __ZNSt3__111char_traitsIcE3eofB8ue170006Ev, symObjAddr: 0x137C, symBinAddr: 0x100005004, symSize: 0x8 }
  - { offsetInCU: 0xB2ED, offset: 0xB2ED, size: 0x8, addend: 0x0, symName: __Z14tryParseDoubleRKNSt3__112basic_stringIcNS_11char_traitsIcEENS_9allocatorIcEEEE, symObjAddr: 0x15BC, symBinAddr: 0x100005244, symSize: 0xBC }
  - { offsetInCU: 0xB324, offset: 0xB324, size: 0x8, addend: 0x0, symName: __Z11tryParseIntRKNSt3__112basic_stringIcNS_11char_traitsIcEENS_9allocatorIcEEEE, symObjAddr: 0x1678, symBinAddr: 0x100005300, symSize: 0xC0 }
  - { offsetInCU: 0xB35C, offset: 0xB35C, size: 0x8, addend: 0x0, symName: __ZNSt3__16vectorIN1M4ItemENS_9allocatorIS2_EEEC1ERKS5_, symObjAddr: 0x1744, symBinAddr: 0x1000053CC, symSize: 0x34 }
  - { offsetInCU: 0xB397, offset: 0xB397, size: 0x8, addend: 0x0, symName: __Z21displayItemsWithIndexRKNSt3__16vectorIN1M4ItemENS_9allocatorIS2_EEEE, symObjAddr: 0x1778, symBinAddr: 0x100005400, symSize: 0x23C }
  - { offsetInCU: 0xB411, offset: 0xB411, size: 0x8, addend: 0x0, symName: __ZNKSt3__16vectorIN1M4ItemENS_9allocatorIS2_EEE4sizeB8ue170006Ev, symObjAddr: 0x19B4, symBinAddr: 0x10000563C, symSize: 0x28 }
  - { offsetInCU: 0xB437, offset: 0xB437, size: 0x8, addend: 0x0, symName: __ZNSt3__16vectorIN1M4ItemENS_9allocatorIS2_EEEixB8ue170006Em, symObjAddr: 0x19DC, symBinAddr: 0x100005664, symSize: 0x24 }
  - { offsetInCU: 0xB46E, offset: 0xB46E, size: 0x8, addend: 0x0, symName: __ZNSt3__16vectorIN1M4ItemENS_9allocatorIS2_EEED1B8ue170006Ev, symObjAddr: 0x1A00, symBinAddr: 0x100005688, symSize: 0x2C }
  - { offsetInCU: 0xB4A7, offset: 0xB4A7, size: 0x8, addend: 0x0, symName: __ZNSt16invalid_argumentC1B8ue170006ERKS_, symObjAddr: 0x1A2C, symBinAddr: 0x1000056B4, symSize: 0x34 }
  - { offsetInCU: 0xB4DC, offset: 0xB4DC, size: 0x8, addend: 0x0, symName: __ZN1M4ItemD2Ev, symObjAddr: 0x1A60, symBinAddr: 0x1000056E8, symSize: 0x2C }
  - { offsetInCU: 0xB508, offset: 0xB508, size: 0x8, addend: 0x0, symName: __ZN1Y9InventoryD2Ev, symObjAddr: 0x1A8C, symBinAddr: 0x100005714, symSize: 0x2C }
  - { offsetInCU: 0xB534, offset: 0xB534, size: 0x8, addend: 0x0, symName: __ZNSt3__18ios_base4setfB8ue170006Ejj, symObjAddr: 0x1AB8, symBinAddr: 0x100005740, symSize: 0x5C }
  - { offsetInCU: 0xB589, offset: 0xB589, size: 0x8, addend: 0x0, symName: __ZNSt3__18ios_base6unsetfB8ue170006Ej, symObjAddr: 0x1B14, symBinAddr: 0x10000579C, symSize: 0x28 }
  - { offsetInCU: 0xB5C0, offset: 0xB5C0, size: 0x8, addend: 0x0, symName: __ZNSt3__18__iom_t6C1B8ue170006Ei, symObjAddr: 0x1B3C, symBinAddr: 0x1000057C4, symSize: 0x34 }
  - { offsetInCU: 0xB5F8, offset: 0xB5F8, size: 0x8, addend: 0x0, symName: __ZNSt3__18__iom_t6C2B8ue170006Ei, symObjAddr: 0x1B70, symBinAddr: 0x1000057F8, symSize: 0x20 }
  - { offsetInCU: 0xB630, offset: 0xB630, size: 0x8, addend: 0x0, symName: __ZNKSt3__111__wrap_iterIPKN1M4ItemEE4baseB8ue170006Ev, symObjAddr: 0x1BD8, symBinAddr: 0x100005860, symSize: 0x18 }
  - { offsetInCU: 0xB656, offset: 0xB656, size: 0x8, addend: 0x0, symName: __ZN1M4ItemC2ERKS0_, symObjAddr: 0x1BF0, symBinAddr: 0x100005878, symSize: 0x40 }
  - { offsetInCU: 0xB68B, offset: 0xB68B, size: 0x8, addend: 0x0, symName: __ZNSt3__123__libcpp_numeric_limitsIlLb1EE3maxB8ue170006Ev, symObjAddr: 0x1C30, symBinAddr: 0x1000058B8, symSize: 0x8 }
  - { offsetInCU: 0xB69F, offset: 0xB69F, size: 0x8, addend: 0x0, symName: __ZNSt16invalid_argumentC2B8ue170006ERKS_, symObjAddr: 0x1C38, symBinAddr: 0x1000058C0, symSize: 0x4C }
  - { offsetInCU: 0xB6D4, offset: 0xB6D4, size: 0x8, addend: 0x0, symName: __ZNSt3__16vectorIN1M4ItemENS_9allocatorIS2_EEED2B8ue170006Ev, symObjAddr: 0x1C84, symBinAddr: 0x10000590C, symSize: 0x44 }
  - { offsetInCU: 0xB6FE, offset: 0xB6FE, size: 0x8, addend: 0x0, symName: __ZNSt3__16vectorIN1M4ItemENS_9allocatorIS2_EEE16__destroy_vectorC1B8ue170006ERS5_, symObjAddr: 0x1CC8, symBinAddr: 0x100005950, symSize: 0x34 }
  - { offsetInCU: 0xB737, offset: 0xB737, size: 0x8, addend: 0x0, symName: __ZNSt3__16vectorIN1M4ItemENS_9allocatorIS2_EEE16__destroy_vectorclB8ue170006Ev, symObjAddr: 0x1CFC, symBinAddr: 0x100005984, symSize: 0x90 }
  - { offsetInCU: 0xB75D, offset: 0xB75D, size: 0x8, addend: 0x0, symName: __ZNSt3__16vectorIN1M4ItemENS_9allocatorIS2_EEE16__destroy_vectorC2B8ue170006ERS5_, symObjAddr: 0x1D8C, symBinAddr: 0x100005A14, symSize: 0x20 }
  - { offsetInCU: 0xB796, offset: 0xB796, size: 0x8, addend: 0x0, symName: __ZNSt3__16vectorIN1M4ItemENS_9allocatorIS2_EEE7__clearB8ue170006Ev, symObjAddr: 0x1DAC, symBinAddr: 0x100005A34, symSize: 0x28 }
  - { offsetInCU: 0xB7BC, offset: 0xB7BC, size: 0x8, addend: 0x0, symName: __ZNKSt3__16vectorIN1M4ItemENS_9allocatorIS2_EEE17__annotate_deleteB8ue170006Ev, symObjAddr: 0x1DD4, symBinAddr: 0x100005A5C, symSize: 0xB8 }
  - { offsetInCU: 0xB7E2, offset: 0xB7E2, size: 0x8, addend: 0x0, symName: __ZNSt3__116allocator_traitsINS_9allocatorIN1M4ItemEEEE10deallocateB8ue170006ERS4_PS3_m, symObjAddr: 0x1E8C, symBinAddr: 0x100005B14, symSize: 0x34 }
  - { offsetInCU: 0xB824, offset: 0xB824, size: 0x8, addend: 0x0, symName: __ZNSt3__16vectorIN1M4ItemENS_9allocatorIS2_EEE7__allocB8ue170006Ev, symObjAddr: 0x1EC0, symBinAddr: 0x100005B48, symSize: 0x28 }
  - { offsetInCU: 0xB84A, offset: 0xB84A, size: 0x8, addend: 0x0, symName: __ZNKSt3__16vectorIN1M4ItemENS_9allocatorIS2_EEE8capacityB8ue170006Ev, symObjAddr: 0x1EE8, symBinAddr: 0x100005B70, symSize: 0x40 }
  - { offsetInCU: 0xB870, offset: 0xB870, size: 0x8, addend: 0x0, symName: __ZNSt3__16vectorIN1M4ItemENS_9allocatorIS2_EEE22__base_destruct_at_endB8ue170006EPS2_, symObjAddr: 0x1F28, symBinAddr: 0x100005BB0, symSize: 0x8C }
  - { offsetInCU: 0xB8B4, offset: 0xB8B4, size: 0x8, addend: 0x0, symName: __ZNSt3__116allocator_traitsINS_9allocatorIN1M4ItemEEEE7destroyB8ue170006IS3_vEEvRS4_PT_, symObjAddr: 0x1FB4, symBinAddr: 0x100005C3C, symSize: 0x2C }
  - { offsetInCU: 0xB8F1, offset: 0xB8F1, size: 0x8, addend: 0x0, symName: __ZNSt3__19allocatorIN1M4ItemEE7destroyB8ue170006EPS2_, symObjAddr: 0x1FF4, symBinAddr: 0x100005C7C, symSize: 0x28 }
  - { offsetInCU: 0xB925, offset: 0xB925, size: 0x8, addend: 0x0, symName: __ZNKSt3__16vectorIN1M4ItemENS_9allocatorIS2_EEE31__annotate_contiguous_containerB8ue170006EPKvS7_S7_S7_, symObjAddr: 0x201C, symBinAddr: 0x100005CA4, symSize: 0x20 }
  - { offsetInCU: 0xB97B, offset: 0xB97B, size: 0x8, addend: 0x0, symName: __ZNKSt3__16vectorIN1M4ItemENS_9allocatorIS2_EEE4dataB8ue170006Ev, symObjAddr: 0x203C, symBinAddr: 0x100005CC4, symSize: 0x28 }
  - { offsetInCU: 0xB9A1, offset: 0xB9A1, size: 0x8, addend: 0x0, symName: __ZNSt3__19allocatorIN1M4ItemEE10deallocateB8ue170006EPS2_m, symObjAddr: 0x2064, symBinAddr: 0x100005CEC, symSize: 0x40 }
  - { offsetInCU: 0xB9E3, offset: 0xB9E3, size: 0x8, addend: 0x0, symName: __ZNSt3__117__compressed_pairIPN1M4ItemENS_9allocatorIS2_EEE6secondB8ue170006Ev, symObjAddr: 0x21CC, symBinAddr: 0x100005E54, symSize: 0x24 }
  - { offsetInCU: 0xBA09, offset: 0xBA09, size: 0x8, addend: 0x0, symName: __ZNSt3__122__compressed_pair_elemINS_9allocatorIN1M4ItemEEELi1ELb1EE5__getB8ue170006Ev, symObjAddr: 0x21F0, symBinAddr: 0x100005E78, symSize: 0x14 }
  - { offsetInCU: 0xBA2F, offset: 0xBA2F, size: 0x8, addend: 0x0, symName: __ZNKSt3__16vectorIN1M4ItemENS_9allocatorIS2_EEE9__end_capB8ue170006Ev, symObjAddr: 0x2204, symBinAddr: 0x100005E8C, symSize: 0x28 }
  - { offsetInCU: 0xBA55, offset: 0xBA55, size: 0x8, addend: 0x0, symName: __ZNKSt3__117__compressed_pairIPN1M4ItemENS_9allocatorIS2_EEE5firstB8ue170006Ev, symObjAddr: 0x222C, symBinAddr: 0x100005EB4, symSize: 0x24 }
  - { offsetInCU: 0xBA7B, offset: 0xBA7B, size: 0x8, addend: 0x0, symName: __ZNKSt3__122__compressed_pair_elemIPN1M4ItemELi0ELb0EE5__getB8ue170006Ev, symObjAddr: 0x2250, symBinAddr: 0x100005ED8, symSize: 0x14 }
  - { offsetInCU: 0xBAA1, offset: 0xBAA1, size: 0x8, addend: 0x0, symName: __ZNSt3__112basic_stringIcNS_11char_traitsIcEENS_9allocatorIcEEEC2B8ue170006ILi0EEEPKc, symObjAddr: 0x2264, symBinAddr: 0x100005EEC, symSize: 0x58 }
  - { offsetInCU: 0xBAE5, offset: 0xBAE5, size: 0x8, addend: 0x0, symName: __ZNSt3__117__compressed_pairINS_12basic_stringIcNS_11char_traitsIcEENS_9allocatorIcEEE5__repES5_EC1B8ue170006INS_18__default_init_tagESA_EEOT_OT0_, symObjAddr: 0x22BC, symBinAddr: 0x100005F44, symSize: 0x3C }
  - { offsetInCU: 0xBB3D, offset: 0xBB3D, size: 0x8, addend: 0x0, symName: __ZNSt3__111char_traitsIcE6lengthB8ue170006EPKc, symObjAddr: 0x22F8, symBinAddr: 0x100005F80, symSize: 0x34 }
  - { offsetInCU: 0xBB60, offset: 0xBB60, size: 0x8, addend: 0x0, symName: __ZNSt3__117__compressed_pairINS_12basic_stringIcNS_11char_traitsIcEENS_9allocatorIcEEE5__repES5_EC2B8ue170006INS_18__default_init_tagESA_EEOT_OT0_, symObjAddr: 0x232C, symBinAddr: 0x100005FB4, symSize: 0x3C }
  - { offsetInCU: 0xBBB8, offset: 0xBBB8, size: 0x8, addend: 0x0, symName: __ZNSt3__122__compressed_pair_elemINS_12basic_stringIcNS_11char_traitsIcEENS_9allocatorIcEEE5__repELi0ELb0EEC2B8ue170006ENS_18__default_init_tagE, symObjAddr: 0x2368, symBinAddr: 0x100005FF0, symSize: 0x14 }
  - { offsetInCU: 0xBBED, offset: 0xBBED, size: 0x8, addend: 0x0, symName: __ZNSt3__122__compressed_pair_elemINS_9allocatorIcEELi1ELb1EEC2B8ue170006ENS_18__default_init_tagE, symObjAddr: 0x237C, symBinAddr: 0x100006004, symSize: 0x2C }
  - { offsetInCU: 0xBC22, offset: 0xBC22, size: 0x8, addend: 0x0, symName: __ZNSt3__19allocatorIcEC2B8ue170006Ev, symObjAddr: 0x23A8, symBinAddr: 0x100006030, symSize: 0x2C }
  - { offsetInCU: 0xBC4C, offset: 0xBC4C, size: 0x8, addend: 0x0, symName: __ZNSt3__116__non_trivial_ifILb1ENS_9allocatorIcEEEC2B8ue170006Ev, symObjAddr: 0x23D4, symBinAddr: 0x10000605C, symSize: 0x14 }
  - { offsetInCU: 0xBC94, offset: 0xBC94, size: 0x8, addend: 0x0, symName: __ZNKSt3__113basic_ostreamIcNS_11char_traitsIcEEE6sentrycvbB8ue170006Ev, symObjAddr: 0x25F8, symBinAddr: 0x100006280, symSize: 0x1C }
  - { offsetInCU: 0xBCBA, offset: 0xBCBA, size: 0x8, addend: 0x0, symName: __ZNSt3__119ostreambuf_iteratorIcNS_11char_traitsIcEEEC1B8ue170006ERNS_13basic_ostreamIcS2_EE, symObjAddr: 0x2854, symBinAddr: 0x1000064DC, symSize: 0x34 }
  - { offsetInCU: 0xBCF2, offset: 0xBCF2, size: 0x8, addend: 0x0, symName: __ZNKSt3__18ios_base5flagsB8ue170006Ev, symObjAddr: 0x2888, symBinAddr: 0x100006510, symSize: 0x18 }
  - { offsetInCU: 0xBD1A, offset: 0xBD1A, size: 0x8, addend: 0x0, symName: __ZNKSt3__19basic_iosIcNS_11char_traitsIcEEE4fillB8ue170006Ev, symObjAddr: 0x28A0, symBinAddr: 0x100006528, symSize: 0x64 }
  - { offsetInCU: 0xBD42, offset: 0xBD42, size: 0x8, addend: 0x0, symName: __ZNKSt3__119ostreambuf_iteratorIcNS_11char_traitsIcEEE6failedB8ue170006Ev, symObjAddr: 0x2904, symBinAddr: 0x10000658C, symSize: 0x24 }
  - { offsetInCU: 0xBD68, offset: 0xBD68, size: 0x8, addend: 0x0, symName: __ZNSt3__19basic_iosIcNS_11char_traitsIcEEE8setstateB8ue170006Ej, symObjAddr: 0x2928, symBinAddr: 0x1000065B0, symSize: 0x2C }
  - { offsetInCU: 0xBD9D, offset: 0xBD9D, size: 0x8, addend: 0x0, symName: __ZNKSt3__18ios_base5widthB8ue170006Ev, symObjAddr: 0x2954, symBinAddr: 0x1000065DC, symSize: 0x18 }
  - { offsetInCU: 0xBDC5, offset: 0xBDC5, size: 0x8, addend: 0x0, symName: __ZNSt3__115basic_streambufIcNS_11char_traitsIcEEE5sputnB8ue170006EPKcl, symObjAddr: 0x296C, symBinAddr: 0x1000065F4, symSize: 0x3C }
  - { offsetInCU: 0xBE07, offset: 0xBE07, size: 0x8, addend: 0x0, symName: __ZNSt3__112basic_stringIcNS_11char_traitsIcEENS_9allocatorIcEEEC1B8ue170006Emc, symObjAddr: 0x29A8, symBinAddr: 0x100006630, symSize: 0x3C }
  - { offsetInCU: 0xBE4F, offset: 0xBE4F, size: 0x8, addend: 0x0, symName: __ZNSt3__112basic_stringIcNS_11char_traitsIcEENS_9allocatorIcEEE4dataB8ue170006Ev, symObjAddr: 0x29E4, symBinAddr: 0x10000666C, symSize: 0x28 }
  - { offsetInCU: 0xBE75, offset: 0xBE75, size: 0x8, addend: 0x0, symName: __ZNSt3__18ios_base5widthB8ue170006El, symObjAddr: 0x2A0C, symBinAddr: 0x100006694, symSize: 0x2C }
  - { offsetInCU: 0xBEBB, offset: 0xBEBB, size: 0x8, addend: 0x0, symName: __ZNSt3__112basic_stringIcNS_11char_traitsIcEENS_9allocatorIcEEEC2B8ue170006Emc, symObjAddr: 0x2A38, symBinAddr: 0x1000066C0, symSize: 0x4C }
  - { offsetInCU: 0xBF03, offset: 0xBF03, size: 0x8, addend: 0x0, symName: __ZNSt3__112basic_stringIcNS_11char_traitsIcEENS_9allocatorIcEEE13__get_pointerB8ue170006Ev, symObjAddr: 0x2A98, symBinAddr: 0x100006720, symSize: 0x54 }
  - { offsetInCU: 0xBF29, offset: 0xBF29, size: 0x8, addend: 0x0, symName: __ZNKSt3__112basic_stringIcNS_11char_traitsIcEENS_9allocatorIcEEE9__is_longB8ue170006Ev, symObjAddr: 0x2AEC, symBinAddr: 0x100006774, symSize: 0x38 }
  - { offsetInCU: 0xBF4F, offset: 0xBF4F, size: 0x8, addend: 0x0, symName: __ZNSt3__112basic_stringIcNS_11char_traitsIcEENS_9allocatorIcEEE18__get_long_pointerB8ue170006Ev, symObjAddr: 0x2B24, symBinAddr: 0x1000067AC, symSize: 0x28 }
  - { offsetInCU: 0xBF75, offset: 0xBF75, size: 0x8, addend: 0x0, symName: __ZNSt3__112basic_stringIcNS_11char_traitsIcEENS_9allocatorIcEEE19__get_short_pointerB8ue170006Ev, symObjAddr: 0x2B4C, symBinAddr: 0x1000067D4, symSize: 0x28 }
  - { offsetInCU: 0xBF9B, offset: 0xBF9B, size: 0x8, addend: 0x0, symName: __ZNKSt3__117__compressed_pairINS_12basic_stringIcNS_11char_traitsIcEENS_9allocatorIcEEE5__repES5_E5firstB8ue170006Ev, symObjAddr: 0x2B74, symBinAddr: 0x1000067FC, symSize: 0x24 }
  - { offsetInCU: 0xBFC1, offset: 0xBFC1, size: 0x8, addend: 0x0, symName: __ZNKSt3__122__compressed_pair_elemINS_12basic_stringIcNS_11char_traitsIcEENS_9allocatorIcEEE5__repELi0ELb0EE5__getB8ue170006Ev, symObjAddr: 0x2B98, symBinAddr: 0x100006820, symSize: 0x14 }
  - { offsetInCU: 0xBFE7, offset: 0xBFE7, size: 0x8, addend: 0x0, symName: __ZNSt3__117__compressed_pairINS_12basic_stringIcNS_11char_traitsIcEENS_9allocatorIcEEE5__repES5_E5firstB8ue170006Ev, symObjAddr: 0x2BAC, symBinAddr: 0x100006834, symSize: 0x24 }
  - { offsetInCU: 0xC00D, offset: 0xC00D, size: 0x8, addend: 0x0, symName: __ZNSt3__122__compressed_pair_elemINS_12basic_stringIcNS_11char_traitsIcEENS_9allocatorIcEEE5__repELi0ELb0EE5__getB8ue170006Ev, symObjAddr: 0x2BD0, symBinAddr: 0x100006858, symSize: 0x14 }
  - { offsetInCU: 0xC033, offset: 0xC033, size: 0x8, addend: 0x0, symName: __ZNSt3__114pointer_traitsIPcE10pointer_toB8ue170006ERc, symObjAddr: 0x2BE4, symBinAddr: 0x10000686C, symSize: 0x14 }
  - { offsetInCU: 0xC056, offset: 0xC056, size: 0x8, addend: 0x0, symName: __ZNSt3__119ostreambuf_iteratorIcNS_11char_traitsIcEEEC2B8ue170006ERNS_13basic_ostreamIcS2_EE, symObjAddr: 0x2BF8, symBinAddr: 0x100006880, symSize: 0x54 }
  - { offsetInCU: 0xC08E, offset: 0xC08E, size: 0x8, addend: 0x0, symName: __ZNKSt3__19basic_iosIcNS_11char_traitsIcEEE5rdbufB8ue170006Ev, symObjAddr: 0x2C4C, symBinAddr: 0x1000068D4, symSize: 0x24 }
  - { offsetInCU: 0xC0B6, offset: 0xC0B6, size: 0x8, addend: 0x0, symName: __ZNKSt3__18ios_base5rdbufB8ue170006Ev, symObjAddr: 0x2C70, symBinAddr: 0x1000068F8, symSize: 0x18 }
  - { offsetInCU: 0xC0DC, offset: 0xC0DC, size: 0x8, addend: 0x0, symName: __ZNSt3__111char_traitsIcE11eq_int_typeB8ue170006Eii, symObjAddr: 0x2C88, symBinAddr: 0x100006910, symSize: 0x28 }
  - { offsetInCU: 0xC10F, offset: 0xC10F, size: 0x8, addend: 0x0, symName: __ZNKSt3__19basic_iosIcNS_11char_traitsIcEEE5widenB8ue170006Ec, symObjAddr: 0x2CB0, symBinAddr: 0x100006938, symSize: 0x84 }
  - { offsetInCU: 0xC17D, offset: 0xC17D, size: 0x8, addend: 0x0, symName: __ZNKSt3__15ctypeIcE5widenB8ue170006Ec, symObjAddr: 0x2D60, symBinAddr: 0x1000069E8, symSize: 0x38 }
  - { offsetInCU: 0xC1B2, offset: 0xC1B2, size: 0x8, addend: 0x0, symName: __ZNSt3__18ios_base8setstateB8ue170006Ej, symObjAddr: 0x2D98, symBinAddr: 0x100006A20, symSize: 0x34 }
  - { offsetInCU: 0xC1E9, offset: 0xC1E9, size: 0x8, addend: 0x0, symName: __ZNKSt3__16vectorIN1M4ItemENS_9allocatorIS2_EEE11__make_iterB8ue170006EPKS2_, symObjAddr: 0x2DCC, symBinAddr: 0x100006A54, symSize: 0x30 }
  - { offsetInCU: 0xC21E, offset: 0xC21E, size: 0x8, addend: 0x0, symName: __ZNSt3__111__wrap_iterIPKN1M4ItemEEC1B8ue170006ES4_, symObjAddr: 0x2DFC, symBinAddr: 0x100006A84, symSize: 0x34 }
  - { offsetInCU: 0xC256, offset: 0xC256, size: 0x8, addend: 0x0, symName: __ZNSt3__111__wrap_iterIPKN1M4ItemEEC2B8ue170006ES4_, symObjAddr: 0x2E30, symBinAddr: 0x100006AB8, symSize: 0x20 }
  - { offsetInCU: 0xC28E, offset: 0xC28E, size: 0x8, addend: 0x0, symName: __ZNKSt3__112basic_stringIcNS_11char_traitsIcEENS_9allocatorIcEEE4dataB8ue170006Ev, symObjAddr: 0x2E50, symBinAddr: 0x100006AD8, symSize: 0x28 }
  - { offsetInCU: 0xC2B4, offset: 0xC2B4, size: 0x8, addend: 0x0, symName: __ZNKSt3__112basic_stringIcNS_11char_traitsIcEENS_9allocatorIcEEE4sizeB8ue170006Ev, symObjAddr: 0x2E78, symBinAddr: 0x100006B00, symSize: 0x54 }
  - { offsetInCU: 0xC2DA, offset: 0xC2DA, size: 0x8, addend: 0x0, symName: __ZNKSt3__112basic_stringIcNS_11char_traitsIcEENS_9allocatorIcEEE13__get_pointerB8ue170006Ev, symObjAddr: 0x2EE0, symBinAddr: 0x100006B68, symSize: 0x54 }
  - { offsetInCU: 0xC300, offset: 0xC300, size: 0x8, addend: 0x0, symName: __ZNKSt3__112basic_stringIcNS_11char_traitsIcEENS_9allocatorIcEEE18__get_long_pointerB8ue170006Ev, symObjAddr: 0x2F34, symBinAddr: 0x100006BBC, symSize: 0x28 }
  - { offsetInCU: 0xC326, offset: 0xC326, size: 0x8, addend: 0x0, symName: __ZNKSt3__112basic_stringIcNS_11char_traitsIcEENS_9allocatorIcEEE19__get_short_pointerB8ue170006Ev, symObjAddr: 0x2F5C, symBinAddr: 0x100006BE4, symSize: 0x28 }
  - { offsetInCU: 0xC34C, offset: 0xC34C, size: 0x8, addend: 0x0, symName: __ZNSt3__114pointer_traitsIPKcE10pointer_toB8ue170006ERS1_, symObjAddr: 0x2F84, symBinAddr: 0x100006C0C, symSize: 0x14 }
  - { offsetInCU: 0xC36F, offset: 0xC36F, size: 0x8, addend: 0x0, symName: __ZNKSt3__112basic_stringIcNS_11char_traitsIcEENS_9allocatorIcEEE15__get_long_sizeB8ue170006Ev, symObjAddr: 0x2F98, symBinAddr: 0x100006C20, symSize: 0x28 }
  - { offsetInCU: 0xC395, offset: 0xC395, size: 0x8, addend: 0x0, symName: __ZNKSt3__112basic_stringIcNS_11char_traitsIcEENS_9allocatorIcEEE16__get_short_sizeB8ue170006Ev, symObjAddr: 0x2FC0, symBinAddr: 0x100006C48, symSize: 0x34 }
  - { offsetInCU: 0xC3BB, offset: 0xC3BB, size: 0x8, addend: 0x0, symName: __ZNSt3__112basic_stringIcNS_11char_traitsIcEENS_9allocatorIcEEEC2B8ue170006Ev, symObjAddr: 0x2FF4, symBinAddr: 0x100006C7C, symSize: 0x48 }
  - { offsetInCU: 0xC3E5, offset: 0xC3E5, size: 0x8, addend: 0x0, symName: __ZNSt3__112basic_stringIcNS_11char_traitsIcEENS_9allocatorIcEEE14__default_initB8ue170006Ev, symObjAddr: 0x303C, symBinAddr: 0x100006CC4, symSize: 0x40 }
  - { offsetInCU: 0xC49D, offset: 0xC49D, size: 0x8, addend: 0x0, symName: __ZNKSt3__113basic_istreamIcNS_11char_traitsIcEEE6sentrycvbB8ue170006Ev, symObjAddr: 0x307C, symBinAddr: 0x100006D04, symSize: 0x1C }
  - { offsetInCU: 0xC4C3, offset: 0xC4C3, size: 0x8, addend: 0x0, symName: __ZNSt3__112basic_stringIcNS_11char_traitsIcEENS_9allocatorIcEEE5clearB8ue170006Ev, symObjAddr: 0x3098, symBinAddr: 0x100006D20, symSize: 0x78 }
  - { offsetInCU: 0xC4EB, offset: 0xC4EB, size: 0x8, addend: 0x0, symName: __ZNSt3__115basic_streambufIcNS_11char_traitsIcEEE6sbumpcB8ue170006Ev, symObjAddr: 0x3110, symBinAddr: 0x100006D98, symSize: 0x78 }
  - { offsetInCU: 0xC511, offset: 0xC511, size: 0x8, addend: 0x0, symName: __ZNSt3__111char_traitsIcE12to_char_typeB8ue170006Ei, symObjAddr: 0x3188, symBinAddr: 0x100006E10, symSize: 0x18 }
  - { offsetInCU: 0xC534, offset: 0xC534, size: 0x8, addend: 0x0, symName: __ZNSt3__111char_traitsIcE2eqEcc, symObjAddr: 0x31A0, symBinAddr: 0x100006E28, symSize: 0x28 }
  - { offsetInCU: 0xC565, offset: 0xC565, size: 0x8, addend: 0x0, symName: __ZNKSt3__112basic_stringIcNS_11char_traitsIcEENS_9allocatorIcEEE8max_sizeB8ue170006Ev, symObjAddr: 0x31C8, symBinAddr: 0x100006E50, symSize: 0xAC }
  - { offsetInCU: 0xC5B7, offset: 0xC5B7, size: 0x8, addend: 0x0, symName: __ZNSt3__18ios_base18__setstate_nothrowB8ue170006Ej, symObjAddr: 0x3274, symBinAddr: 0x100006EFC, symSize: 0x64 }
  - { offsetInCU: 0xC5EC, offset: 0xC5EC, size: 0x8, addend: 0x0, symName: __ZNKSt3__19basic_iosIcNS_11char_traitsIcEEE10exceptionsB8ue170006Ev, symObjAddr: 0x32D8, symBinAddr: 0x100006F60, symSize: 0x24 }
  - { offsetInCU: 0xC612, offset: 0xC612, size: 0x8, addend: 0x0, symName: __ZNSt3__111char_traitsIcE6assignB8ue170006ERcRKc, symObjAddr: 0x32FC, symBinAddr: 0x100006F84, symSize: 0x24 }
  - { offsetInCU: 0xC643, offset: 0xC643, size: 0x8, addend: 0x0, symName: __ZNSt3__112basic_stringIcNS_11char_traitsIcEENS_9allocatorIcEEE15__set_long_sizeB8ue170006Em, symObjAddr: 0x3320, symBinAddr: 0x100006FA8, symSize: 0x38 }
  - { offsetInCU: 0xC678, offset: 0xC678, size: 0x8, addend: 0x0, symName: __ZNSt3__112basic_stringIcNS_11char_traitsIcEENS_9allocatorIcEEE16__set_short_sizeB8ue170006Em, symObjAddr: 0x3358, symBinAddr: 0x100006FE0, symSize: 0x78 }
  - { offsetInCU: 0xC6AD, offset: 0xC6AD, size: 0x8, addend: 0x0, symName: __ZNSt3__111char_traitsIcE11to_int_typeB8ue170006Ec, symObjAddr: 0x33D0, symBinAddr: 0x100007058, symSize: 0x14 }
  - { offsetInCU: 0xC6DB, offset: 0xC6DB, size: 0x8, addend: 0x0, symName: __ZNSt3__116allocator_traitsINS_9allocatorIcEEE8max_sizeB8ue170006IS2_vEEmRKS2_, symObjAddr: 0x33E4, symBinAddr: 0x10000706C, symSize: 0x24 }
  - { offsetInCU: 0xC709, offset: 0xC709, size: 0x8, addend: 0x0, symName: __ZNKSt3__112basic_stringIcNS_11char_traitsIcEENS_9allocatorIcEEE7__allocB8ue170006Ev, symObjAddr: 0x3408, symBinAddr: 0x100007090, symSize: 0x24 }
  - { offsetInCU: 0xC72F, offset: 0xC72F, size: 0x8, addend: 0x0, symName: __ZNSt3__114numeric_limitsImE3maxB8ue170006Ev, symObjAddr: 0x342C, symBinAddr: 0x1000070B4, symSize: 0x14 }
  - { offsetInCU: 0xC743, offset: 0xC743, size: 0x8, addend: 0x0, symName: __ZNKSt3__19allocatorIcE8max_sizeB8ue170006Ev, symObjAddr: 0x3440, symBinAddr: 0x1000070C8, symSize: 0x14 }
  - { offsetInCU: 0xC769, offset: 0xC769, size: 0x8, addend: 0x0, symName: __ZNKSt3__117__compressed_pairINS_12basic_stringIcNS_11char_traitsIcEENS_9allocatorIcEEE5__repES5_E6secondB8ue170006Ev, symObjAddr: 0x3454, symBinAddr: 0x1000070DC, symSize: 0x24 }
  - { offsetInCU: 0xC78F, offset: 0xC78F, size: 0x8, addend: 0x0, symName: __ZNKSt3__122__compressed_pair_elemINS_9allocatorIcEELi1ELb1EE5__getB8ue170006Ev, symObjAddr: 0x3478, symBinAddr: 0x100007100, symSize: 0x14 }
  - { offsetInCU: 0xC7B5, offset: 0xC7B5, size: 0x8, addend: 0x0, symName: __ZNSt3__123__libcpp_numeric_limitsImLb1EE3maxB8ue170006Ev, symObjAddr: 0x348C, symBinAddr: 0x100007114, symSize: 0x8 }
  - { offsetInCU: 0xC7C9, offset: 0xC7C9, size: 0x8, addend: 0x0, symName: __ZNKSt3__18ios_base10exceptionsB8ue170006Ev, symObjAddr: 0x3494, symBinAddr: 0x10000711C, symSize: 0x18 }
  - { offsetInCU: 0xC7F1, offset: 0xC7F1, size: 0x8, addend: 0x0, symName: __ZNSt3__16vectorIN1M4ItemENS_9allocatorIS2_EEEC2ERKS5_, symObjAddr: 0x34AC, symBinAddr: 0x100007134, symSize: 0x94 }
  - { offsetInCU: 0xC836, offset: 0xC836, size: 0x8, addend: 0x0, symName: __ZNSt3__116allocator_traitsINS_9allocatorIN1M4ItemEEEE37select_on_container_copy_constructionB8ue170006IS4_vvEES4_RKS4_, symObjAddr: 0x3540, symBinAddr: 0x1000071C8, symSize: 0x10 }
  - { offsetInCU: 0xC865, offset: 0xC865, size: 0x8, addend: 0x0, symName: __ZNKSt3__16vectorIN1M4ItemENS_9allocatorIS2_EEE7__allocB8ue170006Ev, symObjAddr: 0x3550, symBinAddr: 0x1000071D8, symSize: 0x28 }
  - { offsetInCU: 0xC895, offset: 0xC895, size: 0x8, addend: 0x0, symName: __ZNSt3__117__compressed_pairIPN1M4ItemENS_9allocatorIS2_EEEC1B8ue170006IDnS5_EEOT_OT0_, symObjAddr: 0x3578, symBinAddr: 0x100007200, symSize: 0x3C }
  - { offsetInCU: 0xC8ED, offset: 0xC8ED, size: 0x8, addend: 0x0, symName: __ZNSt3__16vectorIN1M4ItemENS_9allocatorIS2_EEE16__init_with_sizeB8ue170006IPS2_S7_EEvT_T0_m, symObjAddr: 0x35B4, symBinAddr: 0x10000723C, symSize: 0xB8 }
  - { offsetInCU: 0xC961, offset: 0xC961, size: 0x8, addend: 0x0, symName: __ZNKSt3__117__compressed_pairIPN1M4ItemENS_9allocatorIS2_EEE6secondB8ue170006Ev, symObjAddr: 0x366C, symBinAddr: 0x1000072F4, symSize: 0x24 }
  - { offsetInCU: 0xC987, offset: 0xC987, size: 0x8, addend: 0x0, symName: __ZNKSt3__122__compressed_pair_elemINS_9allocatorIN1M4ItemEEELi1ELb1EE5__getB8ue170006Ev, symObjAddr: 0x3690, symBinAddr: 0x100007318, symSize: 0x14 }
  - { offsetInCU: 0xC9AD, offset: 0xC9AD, size: 0x8, addend: 0x0, symName: __ZNSt3__117__compressed_pairIPN1M4ItemENS_9allocatorIS2_EEEC2B8ue170006IDnS5_EEOT_OT0_, symObjAddr: 0x36A4, symBinAddr: 0x10000732C, symSize: 0x44 }
  - { offsetInCU: 0xCA05, offset: 0xCA05, size: 0x8, addend: 0x0, symName: __ZNSt3__122__compressed_pair_elemIPN1M4ItemELi0ELb0EEC2B8ue170006IDnvEEOT_, symObjAddr: 0x36E8, symBinAddr: 0x100007370, symSize: 0x1C }
  - { offsetInCU: 0xCA47, offset: 0xCA47, size: 0x8, addend: 0x0, symName: __ZNSt3__122__compressed_pair_elemINS_9allocatorIN1M4ItemEEELi1ELb1EEC2B8ue170006IS4_vEEOT_, symObjAddr: 0x3704, symBinAddr: 0x10000738C, symSize: 0x18 }
  - { offsetInCU: 0xCA89, offset: 0xCA89, size: 0x8, addend: 0x0, symName: __ZNSt3__16vectorIN1M4ItemENS_9allocatorIS2_EEE11__vallocateB8ue170006Em, symObjAddr: 0x375C, symBinAddr: 0x1000073E4, symSize: 0xAC }
  - { offsetInCU: 0xCACD, offset: 0xCACD, size: 0x8, addend: 0x0, symName: __ZNSt3__16vectorIN1M4ItemENS_9allocatorIS2_EEE18__construct_at_endIPS2_S7_EEvT_T0_m, symObjAddr: 0x3808, symBinAddr: 0x100007490, symSize: 0x8C }
  - { offsetInCU: 0xCB43, offset: 0xCB43, size: 0x8, addend: 0x0, symName: __ZNSt3__128__exception_guard_exceptionsINS_6vectorIN1M4ItemENS_9allocatorIS3_EEE16__destroy_vectorEE10__completeB8ue170006Ev, symObjAddr: 0x3894, symBinAddr: 0x10000751C, symSize: 0x1C }
  - { offsetInCU: 0xCB69, offset: 0xCB69, size: 0x8, addend: 0x0, symName: __ZNSt3__128__exception_guard_exceptionsINS_6vectorIN1M4ItemENS_9allocatorIS3_EEE16__destroy_vectorEED1B8ue170006Ev, symObjAddr: 0x38B0, symBinAddr: 0x100007538, symSize: 0x2C }
  - { offsetInCU: 0xCB93, offset: 0xCB93, size: 0x8, addend: 0x0, symName: __ZNSt3__128__exception_guard_exceptionsINS_6vectorIN1M4ItemENS_9allocatorIS3_EEE16__destroy_vectorEEC1B8ue170006ES7_, symObjAddr: 0x38DC, symBinAddr: 0x100007564, symSize: 0x34 }
  - { offsetInCU: 0xCBCB, offset: 0xCBCB, size: 0x8, addend: 0x0, symName: __ZNSt3__128__exception_guard_exceptionsINS_6vectorIN1M4ItemENS_9allocatorIS3_EEE16__destroy_vectorEEC2B8ue170006ES7_, symObjAddr: 0x3910, symBinAddr: 0x100007598, symSize: 0x24 }
  - { offsetInCU: 0xCC03, offset: 0xCC03, size: 0x8, addend: 0x0, symName: __ZNKSt3__16vectorIN1M4ItemENS_9allocatorIS2_EEE8max_sizeEv, symObjAddr: 0x3934, symBinAddr: 0x1000075BC, symSize: 0x60 }
  - { offsetInCU: 0xCC2B, offset: 0xCC2B, size: 0x8, addend: 0x0, symName: __ZNKSt3__16vectorIN1M4ItemENS_9allocatorIS2_EEE20__throw_length_errorB8ue170006Ev, symObjAddr: 0x3994, symBinAddr: 0x10000761C, symSize: 0x1C }
  - { offsetInCU: 0xCC51, offset: 0xCC51, size: 0x8, addend: 0x0, symName: __ZNSt3__16vectorIN1M4ItemENS_9allocatorIS2_EEE9__end_capB8ue170006Ev, symObjAddr: 0x39F0, symBinAddr: 0x100007678, symSize: 0x28 }
  - { offsetInCU: 0xCC77, offset: 0xCC77, size: 0x8, addend: 0x0, symName: __ZNKSt3__16vectorIN1M4ItemENS_9allocatorIS2_EEE14__annotate_newB8ue170006Em, symObjAddr: 0x3A18, symBinAddr: 0x1000076A0, symSize: 0xAC }
  - { offsetInCU: 0xCCAC, offset: 0xCCAC, size: 0x8, addend: 0x0, symName: __ZNSt3__116allocator_traitsINS_9allocatorIN1M4ItemEEEE8max_sizeB8ue170006IS4_vEEmRKS4_, symObjAddr: 0x3AF0, symBinAddr: 0x100007778, symSize: 0x24 }
  - { offsetInCU: 0xCCEE, offset: 0xCCEE, size: 0x8, addend: 0x0, symName: __ZNKSt3__16__lessIvvEclB8ue170006ImmEEbRKT_RKT0_, symObjAddr: 0x3B68, symBinAddr: 0x1000077F0, symSize: 0x34 }
  - { offsetInCU: 0xCD42, offset: 0xCD42, size: 0x8, addend: 0x0, symName: __ZNKSt3__19allocatorIN1M4ItemEE8max_sizeB8ue170006Ev, symObjAddr: 0x3B9C, symBinAddr: 0x100007824, symSize: 0x14 }
  - { offsetInCU: 0xCD68, offset: 0xCD68, size: 0x8, addend: 0x0, symName: __ZNSt12length_errorC1B8ue170006EPKc, symObjAddr: 0x3C14, symBinAddr: 0x10000789C, symSize: 0x34 }
  - { offsetInCU: 0xCDA0, offset: 0xCDA0, size: 0x8, addend: 0x0, symName: __ZNSt12length_errorC2B8ue170006EPKc, symObjAddr: 0x3C48, symBinAddr: 0x1000078D0, symSize: 0x4C }
  - { offsetInCU: 0xCDD8, offset: 0xCDD8, size: 0x8, addend: 0x0, symName: __ZNSt3__19allocatorIN1M4ItemEE8allocateB8ue170006Em, symObjAddr: 0x3C94, symBinAddr: 0x10000791C, symSize: 0x58 }
  - { offsetInCU: 0xCE0C, offset: 0xCE0C, size: 0x8, addend: 0x0, symName: __ZNSt3__117__compressed_pairIPN1M4ItemENS_9allocatorIS2_EEE5firstB8ue170006Ev, symObjAddr: 0x3DD0, symBinAddr: 0x100007A58, symSize: 0x24 }
  - { offsetInCU: 0xCE32, offset: 0xCE32, size: 0x8, addend: 0x0, symName: __ZNSt3__122__compressed_pair_elemIPN1M4ItemELi0ELb0EE5__getB8ue170006Ev, symObjAddr: 0x3DF4, symBinAddr: 0x100007A7C, symSize: 0x14 }
  - { offsetInCU: 0xCE71, offset: 0xCE71, size: 0x8, addend: 0x0, symName: __ZNSt3__16vectorIN1M4ItemENS_9allocatorIS2_EEE21_ConstructTransactionC1B8ue170006ERS5_m, symObjAddr: 0x3E08, symBinAddr: 0x100007A90, symSize: 0x3C }
  - { offsetInCU: 0xCEB9, offset: 0xCEB9, size: 0x8, addend: 0x0, symName: __ZNSt3__16vectorIN1M4ItemENS_9allocatorIS2_EEE21_ConstructTransactionD1B8ue170006Ev, symObjAddr: 0x3EC4, symBinAddr: 0x100007B4C, symSize: 0x2C }
  - { offsetInCU: 0xCEE3, offset: 0xCEE3, size: 0x8, addend: 0x0, symName: __ZNSt3__16vectorIN1M4ItemENS_9allocatorIS2_EEE21_ConstructTransactionC2B8ue170006ERS5_m, symObjAddr: 0x3EF0, symBinAddr: 0x100007B78, symSize: 0x44 }
  - { offsetInCU: 0xCF49, offset: 0xCF49, size: 0x8, addend: 0x0, symName: __ZNSt3__14pairIPN1M4ItemES3_EC1B8ue170006IS3_S3_LPv0EEEOT_OT0_, symObjAddr: 0x4120, symBinAddr: 0x100007DA8, symSize: 0x3C }
  - { offsetInCU: 0xCFA7, offset: 0xCFA7, size: 0x8, addend: 0x0, symName: __ZNSt3__14pairIPN1M4ItemES3_EC2B8ue170006IS3_S3_LPv0EEEOT_OT0_, symObjAddr: 0x415C, symBinAddr: 0x100007DE4, symSize: 0x34 }
  - { offsetInCU: 0xD005, offset: 0xD005, size: 0x8, addend: 0x0, symName: __ZNSt3__129_AllocatorDestroyRangeReverseINS_9allocatorIN1M4ItemEEEPS3_EC1B8ue170006ERS4_RS5_S8_, symObjAddr: 0x41DC, symBinAddr: 0x100007E64, symSize: 0x44 }
  - { offsetInCU: 0xD05C, offset: 0xD05C, size: 0x8, addend: 0x0, symName: __ZNSt3__116allocator_traitsINS_9allocatorIN1M4ItemEEEE9constructB8ue170006IS3_JRS3_EvEEvRS4_PT_DpOT0_, symObjAddr: 0x4220, symBinAddr: 0x100007EA8, symSize: 0x34 }
  - { offsetInCU: 0xD0B3, offset: 0xD0B3, size: 0x8, addend: 0x0, symName: __ZNSt3__128__exception_guard_exceptionsINS_29_AllocatorDestroyRangeReverseINS_9allocatorIN1M4ItemEEEPS4_EEE10__completeB8ue170006Ev, symObjAddr: 0x4254, symBinAddr: 0x100007EDC, symSize: 0x1C }
  - { offsetInCU: 0xD0D9, offset: 0xD0D9, size: 0x8, addend: 0x0, symName: __ZNSt3__128__exception_guard_exceptionsINS_29_AllocatorDestroyRangeReverseINS_9allocatorIN1M4ItemEEEPS4_EEED1B8ue170006Ev, symObjAddr: 0x4270, symBinAddr: 0x100007EF8, symSize: 0x2C }
  - { offsetInCU: 0xD103, offset: 0xD103, size: 0x8, addend: 0x0, symName: __ZNSt3__128__exception_guard_exceptionsINS_29_AllocatorDestroyRangeReverseINS_9allocatorIN1M4ItemEEEPS4_EEEC1B8ue170006ES7_, symObjAddr: 0x429C, symBinAddr: 0x100007F24, symSize: 0x34 }
  - { offsetInCU: 0xD13C, offset: 0xD13C, size: 0x8, addend: 0x0, symName: __ZNSt3__128__exception_guard_exceptionsINS_29_AllocatorDestroyRangeReverseINS_9allocatorIN1M4ItemEEEPS4_EEEC2B8ue170006ES7_, symObjAddr: 0x42D0, symBinAddr: 0x100007F58, symSize: 0x30 }
  - { offsetInCU: 0xD175, offset: 0xD175, size: 0x8, addend: 0x0, symName: __ZNSt3__129_AllocatorDestroyRangeReverseINS_9allocatorIN1M4ItemEEEPS3_EC2B8ue170006ERS4_RS5_S8_, symObjAddr: 0x4300, symBinAddr: 0x100007F88, symSize: 0x38 }
  - { offsetInCU: 0xD1CC, offset: 0xD1CC, size: 0x8, addend: 0x0, symName: __ZNSt3__19allocatorIN1M4ItemEE9constructB8ue170006IS2_JRS2_EEEvPT_DpOT0_, symObjAddr: 0x4338, symBinAddr: 0x100007FC0, symSize: 0x30 }
  - { offsetInCU: 0xD222, offset: 0xD222, size: 0x8, addend: 0x0, symName: __ZNSt3__128__exception_guard_exceptionsINS_29_AllocatorDestroyRangeReverseINS_9allocatorIN1M4ItemEEEPS4_EEED2B8ue170006Ev, symObjAddr: 0x4368, symBinAddr: 0x100007FF0, symSize: 0x50 }
  - { offsetInCU: 0xD24C, offset: 0xD24C, size: 0x8, addend: 0x0, symName: __ZNKSt3__129_AllocatorDestroyRangeReverseINS_9allocatorIN1M4ItemEEEPS3_EclB8ue170006Ev, symObjAddr: 0x43B8, symBinAddr: 0x100008040, symSize: 0x68 }
  - { offsetInCU: 0xD272, offset: 0xD272, size: 0x8, addend: 0x0, symName: __ZNSt3__116reverse_iteratorIPN1M4ItemEEC1B8ue170006ES3_, symObjAddr: 0x4490, symBinAddr: 0x100008118, symSize: 0x34 }
  - { offsetInCU: 0xD2AA, offset: 0xD2AA, size: 0x8, addend: 0x0, symName: __ZNSt3__116reverse_iteratorIPN1M4ItemEEppB8ue170006Ev, symObjAddr: 0x4530, symBinAddr: 0x1000081B8, symSize: 0x20 }
  - { offsetInCU: 0xD2D0, offset: 0xD2D0, size: 0x8, addend: 0x0, symName: __ZNKSt3__116reverse_iteratorIPN1M4ItemEE4baseB8ue170006Ev, symObjAddr: 0x4550, symBinAddr: 0x1000081D8, symSize: 0x18 }
  - { offsetInCU: 0xD2FB, offset: 0xD2FB, size: 0x8, addend: 0x0, symName: __ZNSt3__119__to_address_helperINS_16reverse_iteratorIPN1M4ItemEEEvE6__callB8ue170006ERKS5_, symObjAddr: 0x4568, symBinAddr: 0x1000081F0, symSize: 0x38 }
  - { offsetInCU: 0xD31E, offset: 0xD31E, size: 0x8, addend: 0x0, symName: __ZNKSt3__116reverse_iteratorIPN1M4ItemEEptB8ue170006Ev, symObjAddr: 0x45A0, symBinAddr: 0x100008228, symSize: 0x24 }
  - { offsetInCU: 0xD344, offset: 0xD344, size: 0x8, addend: 0x0, symName: __ZNKSt3__116reverse_iteratorIPN1M4ItemEEdeB8ue170006Ev, symObjAddr: 0x45C4, symBinAddr: 0x10000824C, symSize: 0x28 }
  - { offsetInCU: 0xD379, offset: 0xD379, size: 0x8, addend: 0x0, symName: __ZNSt3__116reverse_iteratorIPN1M4ItemEEC2B8ue170006ES3_, symObjAddr: 0x45EC, symBinAddr: 0x100008274, symSize: 0x28 }
  - { offsetInCU: 0xD3B1, offset: 0xD3B1, size: 0x8, addend: 0x0, symName: __ZNSt3__118__unwrap_iter_implIPN1M4ItemELb1EE8__unwrapB8ue170006ES3_, symObjAddr: 0x4614, symBinAddr: 0x10000829C, symSize: 0x24 }
  - { offsetInCU: 0xD3D4, offset: 0xD3D4, size: 0x8, addend: 0x0, symName: __ZNSt3__118__unwrap_iter_implIPN1M4ItemELb1EE8__rewrapB8ue170006ES3_S3_, symObjAddr: 0x4638, symBinAddr: 0x1000082C0, symSize: 0x50 }
  - { offsetInCU: 0xD405, offset: 0xD405, size: 0x8, addend: 0x0, symName: __ZNSt3__16vectorIN1M4ItemENS_9allocatorIS2_EEE21_ConstructTransactionD2B8ue170006Ev, symObjAddr: 0x4688, symBinAddr: 0x100008310, symSize: 0x20 }
  - { offsetInCU: 0xD42F, offset: 0xD42F, size: 0x8, addend: 0x0, symName: __ZNSt3__128__exception_guard_exceptionsINS_6vectorIN1M4ItemENS_9allocatorIS3_EEE16__destroy_vectorEED2B8ue170006Ev, symObjAddr: 0x46A8, symBinAddr: 0x100008330, symSize: 0x48 }
  - { offsetInCU: 0x41D6, offset: 0x11723, size: 0x8, addend: 0x0, symName: __ZNSt3__1lsB8ue170006IcNS_11char_traitsIcEEEERNS_13basic_ostreamIT_T0_EES7_RKNS_8__iom_t5E, symObjAddr: 0x71C, symBinAddr: 0x100008954, symSize: 0x40 }
  - { offsetInCU: 0x4222, offset: 0x1176F, size: 0x8, addend: 0x0, symName: __ZNSt3__15fixedB8ue170006ERNS_8ios_baseE, symObjAddr: 0x844, symBinAddr: 0x100008994, symSize: 0x30 }
  - { offsetInCU: 0x4250, offset: 0x1179D, size: 0x8, addend: 0x0, symName: __ZNSt3__112setprecisionB8ue170006Ei, symObjAddr: 0x874, symBinAddr: 0x1000089C4, symSize: 0x2C }
  - { offsetInCU: 0x4287, offset: 0x117D4, size: 0x8, addend: 0x0, symName: __ZNSt3__1eqB8ue170006INS_9allocatorIcEEEEbRKNS_12basic_stringIcNS_11char_traitsIcEET_EES9_, symObjAddr: 0x9A0, symBinAddr: 0x100008AF0, symSize: 0x148 }
  - { offsetInCU: 0x64AE, offset: 0x139FB, size: 0x8, addend: 0x0, symName: __ZN1M4ItemC2Ev, symObjAddr: 0x0, symBinAddr: 0x100008378, symSize: 0x3C }
  - { offsetInCU: 0x64DF, offset: 0x13A2C, size: 0x8, addend: 0x0, symName: __ZN1M4ItemC1Ev, symObjAddr: 0x70, symBinAddr: 0x1000083B4, symSize: 0x2C }
  - { offsetInCU: 0x650B, offset: 0x13A58, size: 0x8, addend: 0x0, symName: __ZN1M4ItemC2ENSt3__112basic_stringIcNS1_11char_traitsIcEENS1_9allocatorIcEEEEdi, symObjAddr: 0x9C, symBinAddr: 0x1000083E0, symSize: 0x5C }
  - { offsetInCU: 0x6562, offset: 0x13AAF, size: 0x8, addend: 0x0, symName: __ZN1M4ItemC1ENSt3__112basic_stringIcNS1_11char_traitsIcEENS1_9allocatorIcEEEEdi, symObjAddr: 0xF8, symBinAddr: 0x10000843C, symSize: 0x44 }
  - { offsetInCU: 0x65B9, offset: 0x13B06, size: 0x8, addend: 0x0, symName: __ZN1M4Item7setNameENSt3__112basic_stringIcNS1_11char_traitsIcEENS1_9allocatorIcEEEE, symObjAddr: 0x13C, symBinAddr: 0x100008480, symSize: 0x34 }
  - { offsetInCU: 0x65F0, offset: 0x13B3D, size: 0x8, addend: 0x0, symName: __ZN1M4Item8setPriceEd, symObjAddr: 0x170, symBinAddr: 0x1000084B4, symSize: 0xA8 }
  - { offsetInCU: 0x6626, offset: 0x13B73, size: 0x8, addend: 0x0, symName: __ZN1M4Item11setQuantityEi, symObjAddr: 0x2E4, symBinAddr: 0x10000855C, symSize: 0x98 }
  - { offsetInCU: 0x665C, offset: 0x13BA9, size: 0x8, addend: 0x0, symName: __ZNK1M4Item7getNameEv, symObjAddr: 0x37C, symBinAddr: 0x1000085F4, symSize: 0x38 }
  - { offsetInCU: 0x6684, offset: 0x13BD1, size: 0x8, addend: 0x0, symName: __ZNK1M4Item8getPriceEv, symObjAddr: 0x3B4, symBinAddr: 0x10000862C, symSize: 0x30 }
  - { offsetInCU: 0x66AC, offset: 0x13BF9, size: 0x8, addend: 0x0, symName: __ZNK1M4Item11getQuantityEv, symObjAddr: 0x3E4, symBinAddr: 0x10000865C, symSize: 0x18 }
  - { offsetInCU: 0x66D4, offset: 0x13C21, size: 0x8, addend: 0x0, symName: __ZNK1M4Item14displayDetailsEv, symObjAddr: 0x3FC, symBinAddr: 0x100008674, symSize: 0x1F4 }
  - { offsetInCU: 0x675C, offset: 0x13CA9, size: 0x8, addend: 0x0, symName: __ZNSt3__119basic_ostringstreamIcNS_11char_traitsIcEENS_9allocatorIcEEEC1B8ue170006Ev, symObjAddr: 0x5F0, symBinAddr: 0x100008868, symSize: 0xEC }
  - { offsetInCU: 0x6786, offset: 0x13CD3, size: 0x8, addend: 0x0, symName: __ZNKSt3__119basic_ostringstreamIcNS_11char_traitsIcEENS_9allocatorIcEEE3strB8ue170006Ev, symObjAddr: 0x8A0, symBinAddr: 0x1000089F0, symSize: 0x30 }
  - { offsetInCU: 0x67B1, offset: 0x13CFE, size: 0x8, addend: 0x0, symName: __ZNSt3__119basic_ostringstreamIcNS_11char_traitsIcEENS_9allocatorIcEEED1Ev, symObjAddr: 0x8D0, symBinAddr: 0x100008A20, symSize: 0x40 }
  - { offsetInCU: 0x67DE, offset: 0x13D2B, size: 0x8, addend: 0x0, symName: __ZNK1M4ItemeqERKS0_, symObjAddr: 0x910, symBinAddr: 0x100008A60, symSize: 0x90 }
  - { offsetInCU: 0x6814, offset: 0x13D61, size: 0x8, addend: 0x0, symName: __ZNSt3__18__iom_t5C1B8ue170006Ei, symObjAddr: 0xBC0, symBinAddr: 0x100008C38, symSize: 0x34 }
  - { offsetInCU: 0x684C, offset: 0x13D99, size: 0x8, addend: 0x0, symName: __ZNSt3__18__iom_t5C2B8ue170006Ei, symObjAddr: 0xBF4, symBinAddr: 0x100008C6C, symSize: 0x20 }
  - { offsetInCU: 0x6884, offset: 0x13DD1, size: 0x8, addend: 0x0, symName: __ZNSt3__119basic_ostringstreamIcNS_11char_traitsIcEENS_9allocatorIcEEED2Ev, symObjAddr: 0xC14, symBinAddr: 0x100008C8C, symSize: 0x64 }
  - { offsetInCU: 0x68BE, offset: 0x13E0B, size: 0x8, addend: 0x0, symName: __ZTv0_n24_NSt3__119basic_ostringstreamIcNS_11char_traitsIcEENS_9allocatorIcEEED1Ev, symObjAddr: 0xC78, symBinAddr: 0x100008CF0, symSize: 0x28 }
  - { offsetInCU: 0x68DA, offset: 0x13E27, size: 0x8, addend: 0x0, symName: __ZNSt3__115basic_stringbufIcNS_11char_traitsIcEENS_9allocatorIcEEED1Ev, symObjAddr: 0xCA0, symBinAddr: 0x100008D18, symSize: 0x2C }
  - { offsetInCU: 0x6907, offset: 0x13E54, size: 0x8, addend: 0x0, symName: __ZNSt3__115basic_stringbufIcNS_11char_traitsIcEENS_9allocatorIcEEED2Ev, symObjAddr: 0xCCC, symBinAddr: 0x100008D44, symSize: 0x48 }
  - { offsetInCU: 0x6952, offset: 0x13E9F, size: 0x8, addend: 0x0, symName: __ZNSt3__19basic_iosIcNS_11char_traitsIcEEEC2B8ue170006Ev, symObjAddr: 0x1890, symBinAddr: 0x100008D8C, symSize: 0x44 }
  - { offsetInCU: 0x697C, offset: 0x13EC9, size: 0x8, addend: 0x0, symName: __ZNSt3__113basic_ostreamIcNS_11char_traitsIcEEEC2B8ue170006EPNS_15basic_streambufIcS2_EE, symObjAddr: 0x18D4, symBinAddr: 0x100008DD0, symSize: 0x60 }
  - { offsetInCU: 0x69C1, offset: 0x13F0E, size: 0x8, addend: 0x0, symName: __ZNSt3__115basic_stringbufIcNS_11char_traitsIcEENS_9allocatorIcEEEC1B8ue170006Ej, symObjAddr: 0x1934, symBinAddr: 0x100008E30, symSize: 0x34 }
  - { offsetInCU: 0x69FA, offset: 0x13F47, size: 0x8, addend: 0x0, symName: __ZNSt3__18ios_baseC2B8ue170006Ev, symObjAddr: 0x1968, symBinAddr: 0x100008E64, symSize: 0x24 }
  - { offsetInCU: 0x6A24, offset: 0x13F71, size: 0x8, addend: 0x0, symName: __ZNSt3__19basic_iosIcNS_11char_traitsIcEEE4initB8ue170006EPNS_15basic_streambufIcS2_EE, symObjAddr: 0x198C, symBinAddr: 0x100008E88, symSize: 0x44 }
  - { offsetInCU: 0x6A5B, offset: 0x13FA8, size: 0x8, addend: 0x0, symName: __ZNSt3__115basic_stringbufIcNS_11char_traitsIcEENS_9allocatorIcEEEC2B8ue170006Ej, symObjAddr: 0x19D0, symBinAddr: 0x100008ECC, symSize: 0x60 }
  - { offsetInCU: 0x6A94, offset: 0x13FE1, size: 0x8, addend: 0x0, symName: __ZNSt3__18ios_base9precisionB8ue170006El, symObjAddr: 0x1C88, symBinAddr: 0x100008F2C, symSize: 0x2C }
  - { offsetInCU: 0x6ADB, offset: 0x14028, size: 0x8, addend: 0x0, symName: __ZNSt3__111char_traitsIcE7compareB8ue170006EPKcS3_m, symObjAddr: 0x1CB4, symBinAddr: 0x100008F58, symSize: 0x34 }
  - { offsetInCU: 0x3922, offset: 0x179BA, size: 0x8, addend: 0x0, symName: __ZNSt3__17advanceB8ue170006IPN1M4ItemEllvEEvRT_T0_, symObjAddr: 0x22B0, symBinAddr: 0x1000098E0, symSize: 0x38 }
  - { offsetInCU: 0x47C4, offset: 0x1885C, size: 0x8, addend: 0x0, symName: __ZNSt3__14swapB8ue170006IN1M4ItemEEENS_9enable_ifIXaasr21is_move_constructibleIT_EE5valuesr18is_move_assignableIS4_EE5valueEvE4typeERS4_S7_, symObjAddr: 0x390, symBinAddr: 0x10000929C, symSize: 0x50 }
  - { offsetInCU: 0x48EA, offset: 0x18982, size: 0x8, addend: 0x0, symName: __ZNSt3__18distanceB8ue170006IPN1M4ItemEEENS_15iterator_traitsIT_E15difference_typeES5_S5_, symObjAddr: 0x2038, symBinAddr: 0x100009668, symSize: 0x2C }
  - { offsetInCU: 0x492D, offset: 0x189C5, size: 0x8, addend: 0x0, symName: __ZNSt3__14nextB8ue170006IPN1M4ItemEEENS_9enable_ifIXsr29__has_input_iterator_categoryIT_EE5valueES5_E4typeES5_NS_15iterator_traitsIS5_E15difference_typeE, symObjAddr: 0x2064, symBinAddr: 0x100009694, symSize: 0x34 }
  - { offsetInCU: 0x4970, offset: 0x18A08, size: 0x8, addend: 0x0, symName: __ZNSt3__14copyB8ue170006IPN1M4ItemES3_EET0_T_S5_S4_, symObjAddr: 0x2098, symBinAddr: 0x1000096C8, symSize: 0x40 }
  - { offsetInCU: 0x49CA, offset: 0x18A62, size: 0x8, addend: 0x0, symName: __ZNSt3__16__copyB8ue170006INS_17_ClassicAlgPolicyEPN1M4ItemES4_S4_EENS_4pairIT0_T2_EES6_T1_S7_, symObjAddr: 0x20D8, symBinAddr: 0x100009708, symSize: 0x44 }
  - { offsetInCU: 0x4A36, offset: 0x18ACE, size: 0x8, addend: 0x0, symName: __ZNSt3__121__convert_to_integralB8ue170006El, symObjAddr: 0x22E8, symBinAddr: 0x100009918, symSize: 0x14 }
  - { offsetInCU: 0x4A62, offset: 0x18AFA, size: 0x8, addend: 0x0, symName: __ZNSt3__19__advanceB8ue170006IPN1M4ItemEEEvRT_NS_15iterator_traitsIS4_E15difference_typeENS_26random_access_iterator_tagE, symObjAddr: 0x22FC, symBinAddr: 0x10000992C, symSize: 0x28 }
  - { offsetInCU: 0x4AAD, offset: 0x18B45, size: 0x8, addend: 0x0, symName: __ZNSt3__123__dispatch_copy_or_moveB8ue170006INS_17_ClassicAlgPolicyENS_11__copy_loopIS1_EENS_14__copy_trivialEPN1M4ItemES7_S7_EENS_4pairIT2_T4_EES9_T3_SA_, symObjAddr: 0x2324, symBinAddr: 0x100009954, symSize: 0x44 }
  - { offsetInCU: 0x4B2B, offset: 0x18BC3, size: 0x8, addend: 0x0, symName: __ZNSt3__121__unwrap_and_dispatchB8ue170006INS_10__overloadINS_11__copy_loopINS_17_ClassicAlgPolicyEEENS_14__copy_trivialEEEPN1M4ItemES9_S9_Li0EEENS_4pairIT0_T2_EESB_T1_SC_, symObjAddr: 0x2368, symBinAddr: 0x100009998, symSize: 0xB4 }
  - { offsetInCU: 0x4C16, offset: 0x18CAE, size: 0x8, addend: 0x0, symName: __ZNSt3__114__rewrap_rangeB8ue170006IPN1M4ItemES3_EET_S4_T0_, symObjAddr: 0x24A4, symBinAddr: 0x100009AD4, symSize: 0x2C }
  - { offsetInCU: 0x4C62, offset: 0x18CFA, size: 0x8, addend: 0x0, symName: __ZNSt3__13maxB8ue170006ImEERKT_S3_S3_, symObjAddr: 0x2608, symBinAddr: 0x100009C38, symSize: 0x2C }
  - { offsetInCU: 0x4CA5, offset: 0x18D3D, size: 0x8, addend: 0x0, symName: __ZNSt3__13maxB8ue170006ImNS_6__lessIvvEEEERKT_S5_S5_T0_, symObjAddr: 0x2634, symBinAddr: 0x100009C64, symSize: 0x54 }
  - { offsetInCU: 0x4CFF, offset: 0x18D97, size: 0x8, addend: 0x0, symName: __ZNSt3__110__distanceB8ue170006IPN1M4ItemEEENS_15iterator_traitsIT_E15difference_typeES5_S5_NS_26random_access_iterator_tagE, symObjAddr: 0x2688, symBinAddr: 0x100009CB8, symSize: 0x28 }
  - { offsetInCU: 0x4D4D, offset: 0x18DE5, size: 0x8, addend: 0x0, symName: __ZNSt3__142__uninitialized_allocator_move_if_noexceptB8ue170006INS_9allocatorIN1M4ItemEEENS_16reverse_iteratorIPS3_EES7_S7_EET2_RT_T0_T1_S8_, symObjAddr: 0x2C28, symBinAddr: 0x10000A258, symSize: 0x11C }
  - { offsetInCU: 0x4DED, offset: 0x18E85, size: 0x8, addend: 0x0, symName: __ZNSt3__14swapB8ue170006IPN1M4ItemEEENS_9enable_ifIXaasr21is_move_constructibleIT_EE5valuesr18is_move_assignableIS5_EE5valueEvE4typeERS5_S8_, symObjAddr: 0x2D44, symBinAddr: 0x10000A374, symSize: 0x3C }
  - { offsetInCU: 0x4E3F, offset: 0x18ED7, size: 0x8, addend: 0x0, symName: __ZNSt3__122__make_exception_guardB8ue170006INS_29_AllocatorDestroyRangeReverseINS_9allocatorIN1M4ItemEEENS_16reverse_iteratorIPS4_EEEEEENS_28__exception_guard_exceptionsIT_EESB_, symObjAddr: 0x2D80, symBinAddr: 0x10000A3B0, symSize: 0x4C }
  - { offsetInCU: 0x4E75, offset: 0x18F0D, size: 0x8, addend: 0x0, symName: __ZNSt3__119__allocator_destroyB8ue170006INS_9allocatorIN1M4ItemEEENS_16reverse_iteratorINS5_IPS3_EEEES8_EEvRT_T0_T1_, symObjAddr: 0x31CC, symBinAddr: 0x10000A784, symSize: 0x70 }
  - { offsetInCU: 0x4EDA, offset: 0x18F72, size: 0x8, addend: 0x0, symName: __ZNSt3__1neB8ue170006INS_16reverse_iteratorIPN1M4ItemEEES5_EEbRKNS1_IT_EERKNS1_IT0_EE, symObjAddr: 0x3278, symBinAddr: 0x10000A830, symSize: 0x60 }
  - { offsetInCU: 0x4F26, offset: 0x18FBE, size: 0x8, addend: 0x0, symName: __ZNSt3__112__to_addressB8ue170006INS_16reverse_iteratorINS1_IPN1M4ItemEEEEEvEEu7__decayIDTclsr19__to_address_helperIT_EE6__callclsr3stdE7declvalIRKS7_EEEEES9_, symObjAddr: 0x32D8, symBinAddr: 0x10000A890, symSize: 0x24 }
  - { offsetInCU: 0x5453, offset: 0x194EB, size: 0x8, addend: 0x0, symName: __ZNSt3__16vectorIN1M4ItemENS_9allocatorIS2_EEE26__swap_out_circular_bufferERNS_14__split_bufferIS2_RS4_EE, symObjAddr: 0x28C0, symBinAddr: 0x100009EF0, symSize: 0x110 }
  - { offsetInCU: 0x73AA, offset: 0x1B442, size: 0x8, addend: 0x0, symName: __ZN1Y9InventoryC2Ev, symObjAddr: 0x0, symBinAddr: 0x100008F8C, symSize: 0x2C }
  - { offsetInCU: 0x73D6, offset: 0x1B46E, size: 0x8, addend: 0x0, symName: __ZNSt3__16vectorIN1M4ItemENS_9allocatorIS2_EEEC1B8ue170006Ev, symObjAddr: 0x2C, symBinAddr: 0x100008FB8, symSize: 0x2C }
  - { offsetInCU: 0x7400, offset: 0x1B498, size: 0x8, addend: 0x0, symName: __ZN1Y9InventoryC1Ev, symObjAddr: 0x58, symBinAddr: 0x100008FE4, symSize: 0x2C }
  - { offsetInCU: 0x742C, offset: 0x1B4C4, size: 0x8, addend: 0x0, symName: __ZN1Y9InventoryC2ERNSt3__16vectorIN1M4ItemENS1_9allocatorIS4_EEEE, symObjAddr: 0x84, symBinAddr: 0x100009010, symSize: 0x34 }
  - { offsetInCU: 0x7466, offset: 0x1B4FE, size: 0x8, addend: 0x0, symName: __ZN1Y9InventoryC1ERNSt3__16vectorIN1M4ItemENS1_9allocatorIS4_EEEE, symObjAddr: 0xEC, symBinAddr: 0x100009044, symSize: 0x34 }
  - { offsetInCU: 0x74A0, offset: 0x1B538, size: 0x8, addend: 0x0, symName: __ZN1Y9Inventory8setItemsERKNSt3__16vectorIN1M4ItemENS1_9allocatorIS4_EEEE, symObjAddr: 0x120, symBinAddr: 0x100009078, symSize: 0x2C }
  - { offsetInCU: 0x74D5, offset: 0x1B56D, size: 0x8, addend: 0x0, symName: __ZNSt3__16vectorIN1M4ItemENS_9allocatorIS2_EEEaSB8ue170006ERKS5_, symObjAddr: 0x14C, symBinAddr: 0x1000090A4, symSize: 0x68 }
  - { offsetInCU: 0x750D, offset: 0x1B5A5, size: 0x8, addend: 0x0, symName: __ZNK1Y9Inventory8getItemsEv, symObjAddr: 0x1B4, symBinAddr: 0x10000910C, symSize: 0x14 }
  - { offsetInCU: 0x7535, offset: 0x1B5CD, size: 0x8, addend: 0x0, symName: __ZN1Y9Inventory7addItemERKN1M4ItemE, symObjAddr: 0x1C8, symBinAddr: 0x100009120, symSize: 0x2C }
  - { offsetInCU: 0x756A, offset: 0x1B602, size: 0x8, addend: 0x0, symName: __ZNSt3__16vectorIN1M4ItemENS_9allocatorIS2_EEE9push_backB8ue170006ERKS2_, symObjAddr: 0x1F4, symBinAddr: 0x10000914C, symSize: 0x6C }
  - { offsetInCU: 0x75A2, offset: 0x1B63A, size: 0x8, addend: 0x0, symName: __ZN1Y9Inventory10removeItemERKN1M4ItemE, symObjAddr: 0x260, symBinAddr: 0x1000091B8, symSize: 0xE4 }
  - { offsetInCU: 0x75F5, offset: 0x1B68D, size: 0x8, addend: 0x0, symName: __ZNSt3__16vectorIN1M4ItemENS_9allocatorIS2_EEE4backB8ue170006Ev, symObjAddr: 0x3E0, symBinAddr: 0x1000092EC, symSize: 0x1C }
  - { offsetInCU: 0x761A, offset: 0x1B6B2, size: 0x8, addend: 0x0, symName: __ZNSt3__16vectorIN1M4ItemENS_9allocatorIS2_EEE8pop_backEv, symObjAddr: 0x3FC, symBinAddr: 0x100009308, symSize: 0x2C }
  - { offsetInCU: 0x7642, offset: 0x1B6DA, size: 0x8, addend: 0x0, symName: __ZNSt3__16vectorIN1M4ItemENS_9allocatorIS2_EEEC2B8ue170006Ev, symObjAddr: 0x428, symBinAddr: 0x100009334, symSize: 0x4C }
  - { offsetInCU: 0x7676, offset: 0x1B70E, size: 0x8, addend: 0x0, symName: __ZNSt3__117__compressed_pairIPN1M4ItemENS_9allocatorIS2_EEEC1B8ue170006IDnNS_18__default_init_tagEEEOT_OT0_, symObjAddr: 0x474, symBinAddr: 0x100009380, symSize: 0x3C }
  - { offsetInCU: 0x76CE, offset: 0x1B766, size: 0x8, addend: 0x0, symName: __ZNSt3__117__compressed_pairIPN1M4ItemENS_9allocatorIS2_EEEC2B8ue170006IDnNS_18__default_init_tagEEEOT_OT0_, symObjAddr: 0x4BC, symBinAddr: 0x1000093BC, symSize: 0x40 }
  - { offsetInCU: 0x7726, offset: 0x1B7BE, size: 0x8, addend: 0x0, symName: __ZNSt3__122__compressed_pair_elemINS_9allocatorIN1M4ItemEEELi1ELb1EEC2B8ue170006ENS_18__default_init_tagE, symObjAddr: 0x518, symBinAddr: 0x1000093FC, symSize: 0x2C }
  - { offsetInCU: 0x775B, offset: 0x1B7F3, size: 0x8, addend: 0x0, symName: __ZNSt3__19allocatorIN1M4ItemEEC2B8ue170006Ev, symObjAddr: 0x544, symBinAddr: 0x100009428, symSize: 0x2C }
  - { offsetInCU: 0x7786, offset: 0x1B81E, size: 0x8, addend: 0x0, symName: __ZNSt3__116__non_trivial_ifILb1ENS_9allocatorIN1M4ItemEEEEC2B8ue170006Ev, symObjAddr: 0x570, symBinAddr: 0x100009454, symSize: 0x14 }
  - { offsetInCU: 0x7800, offset: 0x1B898, size: 0x8, addend: 0x0, symName: __ZNSt3__16vectorIN1M4ItemENS_9allocatorIS2_EEE19__copy_assign_allocB8ue170006ERKS5_, symObjAddr: 0x1E38, symBinAddr: 0x100009468, symSize: 0x2C }
  - { offsetInCU: 0x7834, offset: 0x1B8CC, size: 0x8, addend: 0x0, symName: __ZNSt3__16vectorIN1M4ItemENS_9allocatorIS2_EEE6assignIPS2_Li0EEEvT_S8_, symObjAddr: 0x1E64, symBinAddr: 0x100009494, symSize: 0x5C }
  - { offsetInCU: 0x788A, offset: 0x1B922, size: 0x8, addend: 0x0, symName: __ZNSt3__16vectorIN1M4ItemENS_9allocatorIS2_EEE19__copy_assign_allocB8ue170006ERKS5_NS_17integral_constantIbLb0EEE, symObjAddr: 0x1EC0, symBinAddr: 0x1000094F0, symSize: 0x14 }
  - { offsetInCU: 0x78C7, offset: 0x1B95F, size: 0x8, addend: 0x0, symName: __ZNSt3__16vectorIN1M4ItemENS_9allocatorIS2_EEE18__assign_with_sizeB8ue170006IPS2_S7_EEvT_T0_l, symObjAddr: 0x1ED4, symBinAddr: 0x100009504, symSize: 0x164 }
  - { offsetInCU: 0x7978, offset: 0x1BA10, size: 0x8, addend: 0x0, symName: __ZNSt3__16vectorIN1M4ItemENS_9allocatorIS2_EEE17__destruct_at_endB8ue170006EPS2_, symObjAddr: 0x211C, symBinAddr: 0x10000974C, symSize: 0x4C }
  - { offsetInCU: 0x79BB, offset: 0x1BA53, size: 0x8, addend: 0x0, symName: __ZNSt3__16vectorIN1M4ItemENS_9allocatorIS2_EEE13__vdeallocateEv, symObjAddr: 0x2168, symBinAddr: 0x100009798, symSize: 0x94 }
  - { offsetInCU: 0x79E3, offset: 0x1BA7B, size: 0x8, addend: 0x0, symName: __ZNKSt3__16vectorIN1M4ItemENS_9allocatorIS2_EEE11__recommendB8ue170006Em, symObjAddr: 0x21FC, symBinAddr: 0x10000982C, symSize: 0xB4 }
  - { offsetInCU: 0x7A43, offset: 0x1BADB, size: 0x8, addend: 0x0, symName: __ZNKSt3__111__copy_loopINS_17_ClassicAlgPolicyEEclB8ue170006IPN1M4ItemES6_S6_EENS_4pairIT_T1_EES8_T0_S9_, symObjAddr: 0x241C, symBinAddr: 0x100009A4C, symSize: 0x88 }
  - { offsetInCU: 0x7AAE, offset: 0x1BB46, size: 0x8, addend: 0x0, symName: __ZN1M4ItemaSERKS0_, symObjAddr: 0x24D0, symBinAddr: 0x100009B00, symSize: 0x40 }
  - { offsetInCU: 0x7ADF, offset: 0x1BB77, size: 0x8, addend: 0x0, symName: __ZNKSt3__16vectorIN1M4ItemENS_9allocatorIS2_EEE17__annotate_shrinkB8ue170006Em, symObjAddr: 0x2510, symBinAddr: 0x100009B40, symSize: 0xB4 }
  - { offsetInCU: 0x7B14, offset: 0x1BBAC, size: 0x8, addend: 0x0, symName: __ZNSt3__16vectorIN1M4ItemENS_9allocatorIS2_EEE5clearB8ue170006Ev, symObjAddr: 0x25C4, symBinAddr: 0x100009BF4, symSize: 0x44 }
  - { offsetInCU: 0x7B49, offset: 0x1BBE1, size: 0x8, addend: 0x0, symName: __ZNSt3__16vectorIN1M4ItemENS_9allocatorIS2_EEE22__construct_one_at_endB8ue170006IJRKS2_EEEvDpOT_, symObjAddr: 0x26B0, symBinAddr: 0x100009CE0, symSize: 0x90 }
  - { offsetInCU: 0x7B97, offset: 0x1BC2F, size: 0x8, addend: 0x0, symName: __ZNSt3__16vectorIN1M4ItemENS_9allocatorIS2_EEE21__push_back_slow_pathIRKS2_EEvOT_, symObjAddr: 0x2740, symBinAddr: 0x100009D70, symSize: 0xD8 }
  - { offsetInCU: 0x7BF6, offset: 0x1BC8E, size: 0x8, addend: 0x0, symName: __ZNSt3__116allocator_traitsINS_9allocatorIN1M4ItemEEEE9constructB8ue170006IS3_JRKS3_EvEEvRS4_PT_DpOT0_, symObjAddr: 0x2818, symBinAddr: 0x100009E48, symSize: 0x34 }
  - { offsetInCU: 0x7C4D, offset: 0x1BCE5, size: 0x8, addend: 0x0, symName: __ZNSt3__19allocatorIN1M4ItemEE9constructB8ue170006IS2_JRKS2_EEEvPT_DpOT0_, symObjAddr: 0x284C, symBinAddr: 0x100009E7C, symSize: 0x30 }
  - { offsetInCU: 0x7CA2, offset: 0x1BD3A, size: 0x8, addend: 0x0, symName: __ZNSt3__114__split_bufferIN1M4ItemERNS_9allocatorIS2_EEEC1EmmS5_, symObjAddr: 0x287C, symBinAddr: 0x100009EAC, symSize: 0x44 }
  - { offsetInCU: 0x7CF8, offset: 0x1BD90, size: 0x8, addend: 0x0, symName: __ZNSt3__114__split_bufferIN1M4ItemERNS_9allocatorIS2_EEED1Ev, symObjAddr: 0x29D0, symBinAddr: 0x10000A000, symSize: 0x2C }
  - { offsetInCU: 0x7D24, offset: 0x1BDBC, size: 0x8, addend: 0x0, symName: __ZNSt3__114__split_bufferIN1M4ItemERNS_9allocatorIS2_EEEC2EmmS5_, symObjAddr: 0x29FC, symBinAddr: 0x10000A02C, symSize: 0xD4 }
  - { offsetInCU: 0x7D97, offset: 0x1BE2F, size: 0x8, addend: 0x0, symName: __ZNSt3__117__compressed_pairIPN1M4ItemERNS_9allocatorIS2_EEEC1B8ue170006IDnS6_EEOT_OT0_, symObjAddr: 0x2AD0, symBinAddr: 0x10000A100, symSize: 0x3C }
  - { offsetInCU: 0x7DF0, offset: 0x1BE88, size: 0x8, addend: 0x0, symName: __ZNSt3__114__split_bufferIN1M4ItemERNS_9allocatorIS2_EEE7__allocB8ue170006Ev, symObjAddr: 0x2B0C, symBinAddr: 0x10000A13C, symSize: 0x28 }
  - { offsetInCU: 0x7E16, offset: 0x1BEAE, size: 0x8, addend: 0x0, symName: __ZNSt3__114__split_bufferIN1M4ItemERNS_9allocatorIS2_EEE9__end_capB8ue170006Ev, symObjAddr: 0x2B34, symBinAddr: 0x10000A164, symSize: 0x28 }
  - { offsetInCU: 0x7E3B, offset: 0x1BED3, size: 0x8, addend: 0x0, symName: __ZNSt3__117__compressed_pairIPN1M4ItemERNS_9allocatorIS2_EEEC2B8ue170006IDnS6_EEOT_OT0_, symObjAddr: 0x2B5C, symBinAddr: 0x10000A18C, symSize: 0x48 }
  - { offsetInCU: 0x7E94, offset: 0x1BF2C, size: 0x8, addend: 0x0, symName: __ZNSt3__122__compressed_pair_elemIRNS_9allocatorIN1M4ItemEEELi1ELb0EEC2B8ue170006IS5_vEEOT_, symObjAddr: 0x2BA4, symBinAddr: 0x10000A1D4, symSize: 0x20 }
  - { offsetInCU: 0x7ED6, offset: 0x1BF6E, size: 0x8, addend: 0x0, symName: __ZNSt3__117__compressed_pairIPN1M4ItemERNS_9allocatorIS2_EEE6secondB8ue170006Ev, symObjAddr: 0x2BC4, symBinAddr: 0x10000A1F4, symSize: 0x28 }
  - { offsetInCU: 0x7EFC, offset: 0x1BF94, size: 0x8, addend: 0x0, symName: __ZNSt3__122__compressed_pair_elemIRNS_9allocatorIN1M4ItemEEELi1ELb0EE5__getB8ue170006Ev, symObjAddr: 0x2BEC, symBinAddr: 0x10000A21C, symSize: 0x18 }
  - { offsetInCU: 0x7F22, offset: 0x1BFBA, size: 0x8, addend: 0x0, symName: __ZNSt3__117__compressed_pairIPN1M4ItemERNS_9allocatorIS2_EEE5firstB8ue170006Ev, symObjAddr: 0x2C04, symBinAddr: 0x10000A234, symSize: 0x24 }
  - { offsetInCU: 0x7F47, offset: 0x1BFDF, size: 0x8, addend: 0x0, symName: __ZNSt3__129_AllocatorDestroyRangeReverseINS_9allocatorIN1M4ItemEEENS_16reverse_iteratorIPS3_EEEC1B8ue170006ERS4_RS7_SA_, symObjAddr: 0x2DCC, symBinAddr: 0x10000A3FC, symSize: 0x44 }
  - { offsetInCU: 0x7FA4, offset: 0x1C03C, size: 0x8, addend: 0x0, symName: __ZNSt3__116allocator_traitsINS_9allocatorIN1M4ItemEEEE9constructB8ue170006IS3_JS3_EvEEvRS4_PT_DpOT0_, symObjAddr: 0x2E10, symBinAddr: 0x10000A440, symSize: 0x34 }
  - { offsetInCU: 0x7FFB, offset: 0x1C093, size: 0x8, addend: 0x0, symName: __ZNSt3__128__exception_guard_exceptionsINS_29_AllocatorDestroyRangeReverseINS_9allocatorIN1M4ItemEEENS_16reverse_iteratorIPS4_EEEEE10__completeB8ue170006Ev, symObjAddr: 0x2E44, symBinAddr: 0x10000A474, symSize: 0x1C }
  - { offsetInCU: 0x8020, offset: 0x1C0B8, size: 0x8, addend: 0x0, symName: __ZNSt3__128__exception_guard_exceptionsINS_29_AllocatorDestroyRangeReverseINS_9allocatorIN1M4ItemEEENS_16reverse_iteratorIPS4_EEEEED1B8ue170006Ev, symObjAddr: 0x2E60, symBinAddr: 0x10000A490, symSize: 0x2C }
  - { offsetInCU: 0x804A, offset: 0x1C0E2, size: 0x8, addend: 0x0, symName: __ZNSt3__128__exception_guard_exceptionsINS_29_AllocatorDestroyRangeReverseINS_9allocatorIN1M4ItemEEENS_16reverse_iteratorIPS4_EEEEEC1B8ue170006ES9_, symObjAddr: 0x2E8C, symBinAddr: 0x10000A4BC, symSize: 0x34 }
  - { offsetInCU: 0x8084, offset: 0x1C11C, size: 0x8, addend: 0x0, symName: __ZNSt3__128__exception_guard_exceptionsINS_29_AllocatorDestroyRangeReverseINS_9allocatorIN1M4ItemEEENS_16reverse_iteratorIPS4_EEEEEC2B8ue170006ES9_, symObjAddr: 0x2EC0, symBinAddr: 0x10000A4F0, symSize: 0x30 }
  - { offsetInCU: 0x80BD, offset: 0x1C155, size: 0x8, addend: 0x0, symName: __ZNSt3__129_AllocatorDestroyRangeReverseINS_9allocatorIN1M4ItemEEENS_16reverse_iteratorIPS3_EEEC2B8ue170006ERS4_RS7_SA_, symObjAddr: 0x2EF0, symBinAddr: 0x10000A520, symSize: 0x38 }
  - { offsetInCU: 0x8114, offset: 0x1C1AC, size: 0x8, addend: 0x0, symName: __ZNSt3__19allocatorIN1M4ItemEE9constructB8ue170006IS2_JS2_EEEvPT_DpOT0_, symObjAddr: 0x2F28, symBinAddr: 0x10000A558, symSize: 0x30 }
  - { offsetInCU: 0x8169, offset: 0x1C201, size: 0x8, addend: 0x0, symName: __ZN1M4ItemC1EOS0_, symObjAddr: 0x2F58, symBinAddr: 0x10000A588, symSize: 0x34 }
  - { offsetInCU: 0x819E, offset: 0x1C236, size: 0x8, addend: 0x0, symName: __ZN1M4ItemC2EOS0_, symObjAddr: 0x2F8C, symBinAddr: 0x10000A5BC, symSize: 0x40 }
  - { offsetInCU: 0x81D3, offset: 0x1C26B, size: 0x8, addend: 0x0, symName: __ZNSt3__112basic_stringIcNS_11char_traitsIcEENS_9allocatorIcEEEC1B8ue170006EOS5_, symObjAddr: 0x2FCC, symBinAddr: 0x10000A5FC, symSize: 0x34 }
  - { offsetInCU: 0x820C, offset: 0x1C2A4, size: 0x8, addend: 0x0, symName: __ZNSt3__112basic_stringIcNS_11char_traitsIcEENS_9allocatorIcEEEC2B8ue170006EOS5_, symObjAddr: 0x3000, symBinAddr: 0x10000A630, symSize: 0x50 }
  - { offsetInCU: 0x8245, offset: 0x1C2DD, size: 0x8, addend: 0x0, symName: __ZNSt3__128__exception_guard_exceptionsINS_29_AllocatorDestroyRangeReverseINS_9allocatorIN1M4ItemEEENS_16reverse_iteratorIPS4_EEEEED2B8ue170006Ev, symObjAddr: 0x30C8, symBinAddr: 0x10000A680, symSize: 0x50 }
  - { offsetInCU: 0x8270, offset: 0x1C308, size: 0x8, addend: 0x0, symName: __ZNKSt3__129_AllocatorDestroyRangeReverseINS_9allocatorIN1M4ItemEEENS_16reverse_iteratorIPS3_EEEclB8ue170006Ev, symObjAddr: 0x3118, symBinAddr: 0x10000A6D0, symSize: 0xB4 }
  - { offsetInCU: 0x8296, offset: 0x1C32E, size: 0x8, addend: 0x0, symName: __ZNSt3__116reverse_iteratorINS0_IPN1M4ItemEEEEC1B8ue170006ES4_, symObjAddr: 0x323C, symBinAddr: 0x10000A7F4, symSize: 0x3C }
  - { offsetInCU: 0x82CF, offset: 0x1C367, size: 0x8, addend: 0x0, symName: __ZNSt3__116reverse_iteratorINS0_IPN1M4ItemEEEEppB8ue170006Ev, symObjAddr: 0x32FC, symBinAddr: 0x10000A8B4, symSize: 0x30 }
  - { offsetInCU: 0x82F5, offset: 0x1C38D, size: 0x8, addend: 0x0, symName: __ZNKSt3__116reverse_iteratorINS0_IPN1M4ItemEEEE4baseB8ue170006Ev, symObjAddr: 0x332C, symBinAddr: 0x10000A8E4, symSize: 0x24 }
  - { offsetInCU: 0x8320, offset: 0x1C3B8, size: 0x8, addend: 0x0, symName: __ZNSt3__119__to_address_helperINS_16reverse_iteratorINS1_IPN1M4ItemEEEEEvE6__callB8ue170006ERKS6_, symObjAddr: 0x3350, symBinAddr: 0x10000A908, symSize: 0x38 }
  - { offsetInCU: 0x8343, offset: 0x1C3DB, size: 0x8, addend: 0x0, symName: __ZNKSt3__116reverse_iteratorINS0_IPN1M4ItemEEEEptB8ue170006Ev, symObjAddr: 0x3388, symBinAddr: 0x10000A940, symSize: 0x24 }
  - { offsetInCU: 0x8369, offset: 0x1C401, size: 0x8, addend: 0x0, symName: __ZNKSt3__116reverse_iteratorINS0_IPN1M4ItemEEEEdeB8ue170006Ev, symObjAddr: 0x33AC, symBinAddr: 0x10000A964, symSize: 0x34 }
  - { offsetInCU: 0x839E, offset: 0x1C436, size: 0x8, addend: 0x0, symName: __ZNSt3__116reverse_iteratorIPN1M4ItemEEmmB8ue170006Ev, symObjAddr: 0x33E0, symBinAddr: 0x10000A998, symSize: 0x20 }
  - { offsetInCU: 0x83C4, offset: 0x1C45C, size: 0x8, addend: 0x0, symName: __ZNSt3__116reverse_iteratorINS0_IPN1M4ItemEEEEC2B8ue170006ES4_, symObjAddr: 0x3400, symBinAddr: 0x10000A9B8, symSize: 0x2C }
  - { offsetInCU: 0x83FB, offset: 0x1C493, size: 0x8, addend: 0x0, symName: __ZNSt3__114__split_bufferIN1M4ItemERNS_9allocatorIS2_EEED2Ev, symObjAddr: 0x342C, symBinAddr: 0x10000A9E4, symSize: 0x8C }
  - { offsetInCU: 0x8428, offset: 0x1C4C0, size: 0x8, addend: 0x0, symName: __ZNSt3__114__split_bufferIN1M4ItemERNS_9allocatorIS2_EEE5clearB8ue170006Ev, symObjAddr: 0x34B8, symBinAddr: 0x10000AA70, symSize: 0x28 }
  - { offsetInCU: 0x844E, offset: 0x1C4E6, size: 0x8, addend: 0x0, symName: __ZNKSt3__114__split_bufferIN1M4ItemERNS_9allocatorIS2_EEE8capacityB8ue170006Ev, symObjAddr: 0x34E0, symBinAddr: 0x10000AA98, symSize: 0x40 }
  - { offsetInCU: 0x8474, offset: 0x1C50C, size: 0x8, addend: 0x0, symName: __ZNSt3__114__split_bufferIN1M4ItemERNS_9allocatorIS2_EEE17__destruct_at_endB8ue170006EPS2_, symObjAddr: 0x3520, symBinAddr: 0x10000AAD8, symSize: 0x2C }
  - { offsetInCU: 0x84A7, offset: 0x1C53F, size: 0x8, addend: 0x0, symName: __ZNSt3__114__split_bufferIN1M4ItemERNS_9allocatorIS2_EEE17__destruct_at_endB8ue170006EPS2_NS_17integral_constantIbLb0EEE, symObjAddr: 0x354C, symBinAddr: 0x10000AB04, symSize: 0x80 }
  - { offsetInCU: 0x84E9, offset: 0x1C581, size: 0x8, addend: 0x0, symName: __ZNKSt3__114__split_bufferIN1M4ItemERNS_9allocatorIS2_EEE9__end_capB8ue170006Ev, symObjAddr: 0x35CC, symBinAddr: 0x10000AB84, symSize: 0x28 }
  - { offsetInCU: 0x850F, offset: 0x1C5A7, size: 0x8, addend: 0x0, symName: __ZNKSt3__117__compressed_pairIPN1M4ItemERNS_9allocatorIS2_EEE5firstB8ue170006Ev, symObjAddr: 0x35F4, symBinAddr: 0x10000ABAC, symSize: 0x24 }
  - { offsetInCU: 0x8535, offset: 0x1C5CD, size: 0x8, addend: 0x0, symName: __ZN1M4ItemaSEOS0_, symObjAddr: 0x3618, symBinAddr: 0x10000ABD0, symSize: 0x40 }
  - { offsetInCU: 0x8566, offset: 0x1C5FE, size: 0x8, addend: 0x0, symName: __ZNSt3__112basic_stringIcNS_11char_traitsIcEENS_9allocatorIcEEEaSB8ue170006EOS5_, symObjAddr: 0x3658, symBinAddr: 0x10000AC10, symSize: 0x34 }
  - { offsetInCU: 0x859A, offset: 0x1C632, size: 0x8, addend: 0x0, symName: __ZNSt3__112basic_stringIcNS_11char_traitsIcEENS_9allocatorIcEEE13__move_assignB8ue170006ERS5_NS_17integral_constantIbLb1EEE, symObjAddr: 0x368C, symBinAddr: 0x10000AC44, symSize: 0xC8 }
  - { offsetInCU: 0x85DE, offset: 0x1C676, size: 0x8, addend: 0x0, symName: __ZNSt3__116allocator_traitsINS_9allocatorIcEEE10deallocateB8ue170006ERS2_Pcm, symObjAddr: 0x378C, symBinAddr: 0x10000AD0C, symSize: 0x34 }
  - { offsetInCU: 0x8620, offset: 0x1C6B8, size: 0x8, addend: 0x0, symName: __ZNSt3__112basic_stringIcNS_11char_traitsIcEENS_9allocatorIcEEE7__allocB8ue170006Ev, symObjAddr: 0x37C0, symBinAddr: 0x10000AD40, symSize: 0x24 }
  - { offsetInCU: 0x8646, offset: 0x1C6DE, size: 0x8, addend: 0x0, symName: __ZNKSt3__112basic_stringIcNS_11char_traitsIcEENS_9allocatorIcEEE14__get_long_capB8ue170006Ev, symObjAddr: 0x380C, symBinAddr: 0x10000AD64, symSize: 0x30 }
  - { offsetInCU: 0x866C, offset: 0x1C704, size: 0x8, addend: 0x0, symName: __ZNSt3__112basic_stringIcNS_11char_traitsIcEENS_9allocatorIcEEE19__move_assign_allocB8ue170006ERS5_, symObjAddr: 0x383C, symBinAddr: 0x10000AD94, symSize: 0x2C }
  - { offsetInCU: 0x86A1, offset: 0x1C739, size: 0x8, addend: 0x0, symName: __ZNSt3__19allocatorIcE10deallocateB8ue170006EPcm, symObjAddr: 0x3964, symBinAddr: 0x10000ADC0, symSize: 0x40 }
  - { offsetInCU: 0x86E3, offset: 0x1C77B, size: 0x8, addend: 0x0, symName: __ZNSt3__117__compressed_pairINS_12basic_stringIcNS_11char_traitsIcEENS_9allocatorIcEEE5__repES5_E6secondB8ue170006Ev, symObjAddr: 0x39A4, symBinAddr: 0x10000AE00, symSize: 0x24 }
  - { offsetInCU: 0x8709, offset: 0x1C7A1, size: 0x8, addend: 0x0, symName: __ZNSt3__122__compressed_pair_elemINS_9allocatorIcEELi1ELb1EE5__getB8ue170006Ev, symObjAddr: 0x39C8, symBinAddr: 0x10000AE24, symSize: 0x14 }
  - { offsetInCU: 0x872F, offset: 0x1C7C7, size: 0x8, addend: 0x0, symName: __ZNSt3__112basic_stringIcNS_11char_traitsIcEENS_9allocatorIcEEE19__move_assign_allocB8ue170006ERS5_NS_17integral_constantIbLb1EEE, symObjAddr: 0x39DC, symBinAddr: 0x10000AE38, symSize: 0x38 }
...
